(lp0
(S'cppflags'
p1
ccopy_reg
_reconstructor
p2
(cino.utils
SpaceList
p3
c__builtin__
list
p4
(lp5
S'-mmcu=atmega328p'
p6
aS'-DF_CPU=16000000L'
p7
aS'-DARDUINO=105'
p8
aS'-I/usr/share/arduino/hardware/arduino/cores/arduino'
p9
aS'-ffunction-sections'
p10
aS'-fdata-sections'
p11
aS'-g'
p12
aS'-Os'
p13
aS'-w'
p14
aS'-I/usr/share/arduino/hardware/arduino/variants/eightanaloginputs'
p15
aS'-I/usr/share/arduino/libraries/VirtualWire'
p16
aS'-I/usr/share/arduino/libraries/VirtualWire/util'
p17
aS'-I/usr/share/arduino/libraries/VirtualWire/doc'
p18
aS'-Ilib/VirtualWire'
p19
aS'-I/usr/share/arduino/hardware/arduino/cores/arduino'
p20
aS'-I/usr/share/arduino/hardware/arduino/cores/arduino/avr-libc'
p21
atp22
Rp23
tp24
a(S'version.txt'
p25
S'/usr/share/arduino/lib/version.txt'
p26
tp27
a(S'used_libs'
p28
(lp29
S'/usr/share/arduino/libraries/VirtualWire'
p30
aS'lib/VirtualWire'
p31
aS'/usr/share/arduino/hardware/arduino/cores/arduino'
p32
atp33
a(S'cc'
p34
S'/usr/share/arduino/hardware/tools/avr/bin/avr-gcc'
p35
tp36
a(S'make'
p37
S'/usr/share/arduino/hardware/tools/avr/bin/make'
p38
tp39
a(S'build_dir'
p40
S'.build/nano328'
p41
tp42
a(S'arduino_core_dir'
p43
g32
tp44
a(S'boards.txt'
p45
S'/usr/share/arduino/hardware/arduino/boards.txt'
p46
tp47
a(S'cxxflags'
p48
g2
(g3
g4
(lp49
S'-fno-exceptions'
p50
atp51
Rp52
tp53
a(S'arduino_variants_dir'
p54
S'/usr/share/arduino/hardware/arduino/variants'
p55
tp56
a(S'deps'
p57
g2
(g3
g4
(lp58
S'.build/nano328/src/dependencies.d'
p59
aS'.build/nano328/arduino/dependencies.d'
p60
aS'.build/nano328/VirtualWire/dependencies.d'
p61
aS'.build/nano328/VirtualWire/dependencies.d'
p62
atp63
Rp64
tp65
a(S'ar'
p66
S'/usr/share/arduino/hardware/tools/avr/bin/avr-ar'
p67
tp68
a(S'names'
p69
(dp70
S'cpp'
p71
S'%s.cpp'
p72
sS'obj'
p73
S'%s.o'
p74
sg57
S'%s.d'
p75
sS'lib'
p76
S'lib%s.a'
p77
stp78
a(S'cflags'
p79
g2
(g3
g4
(lp80
tp81
Rp82
tp83
a(S'ldflags'
p84
g2
(g3
g4
(lp85
g6
aS'-Wl,-Os'
p86
aS'-Wl,--gc-sections'
p87
atp88
Rp89
tp90
a(S'arduino_libraries_dir'
p91
S'/usr/share/arduino/libraries'
p92
tp93
a(S'arduino_lib_version'
p94
g2
(cino.environment
Version
p95
c__builtin__
tuple
p96
(I1
I0
I5
tp97
tp98
Rp99
tp100
a(S'objcopy'
p101
S'/usr/share/arduino/hardware/tools/avr/bin/avr-objcopy'
p102
tp103
a(S'board_models'
p104
cino.environment
BoardModels
p105
((lp106
(lp107
S'uno'
p108
a(dp109
S'build'
p110
(dp111
S'core'
p112
S'arduino'
p113
sS'mcu'
p114
S'atmega328p'
p115
sS'f_cpu'
p116
S'16000000L'
p117
sS'variant'
p118
S'standard'
p119
ssS'bootloader'
p120
(dp121
S'extended_fuses'
p122
S'0x05'
p123
sS'high_fuses'
p124
S'0xde'
p125
sS'low_fuses'
p126
S'0xff'
p127
sS'lock_bits'
p128
S'0x0F'
p129
sS'file'
p130
S'optiboot_atmega328.hex'
p131
sS'path'
p132
S'optiboot'
p133
sS'unlock_bits'
p134
S'0x3F'
p135
ssS'name'
p136
S'Arduino Uno'
p137
sS'upload'
p138
(dp139
S'speed'
p140
S'115200'
p141
sS'maximum_size'
p142
S'32256'
p143
sS'protocol'
p144
S'arduino'
p145
ssaa(lp146
S'atmega328'
p147
a(dp148
S'build'
p149
(dp150
S'core'
p151
S'arduino'
p152
sS'mcu'
p153
S'atmega328p'
p154
sS'f_cpu'
p155
S'16000000L'
p156
sS'variant'
p157
S'standard'
p158
ssS'bootloader'
p159
(dp160
S'extended_fuses'
p161
S'0x05'
p162
sS'high_fuses'
p163
S'0xDA'
p164
sS'low_fuses'
p165
S'0xFF'
p166
sS'lock_bits'
p167
S'0x0F'
p168
sS'file'
p169
S'ATmegaBOOT_168_atmega328.hex'
p170
sS'path'
p171
S'atmega'
p172
sS'unlock_bits'
p173
S'0x3F'
p174
ssS'name'
p175
S'Arduino Duemilanove w/ ATmega328'
p176
sS'upload'
p177
(dp178
S'speed'
p179
S'57600'
p180
sS'maximum_size'
p181
S'30720'
p182
sS'protocol'
p183
S'arduino'
p184
ssaa(lp185
S'diecimila'
p186
a(dp187
S'build'
p188
(dp189
S'core'
p190
S'arduino'
p191
sS'mcu'
p192
S'atmega168'
p193
sS'f_cpu'
p194
S'16000000L'
p195
sS'variant'
p196
S'standard'
p197
ssS'bootloader'
p198
(dp199
S'extended_fuses'
p200
S'0x00'
p201
sS'high_fuses'
p202
S'0xdd'
p203
sS'low_fuses'
p204
S'0xff'
p205
sS'lock_bits'
p206
S'0x0F'
p207
sS'file'
p208
S'ATmegaBOOT_168_diecimila.hex'
p209
sS'path'
p210
S'atmega'
p211
sS'unlock_bits'
p212
S'0x3F'
p213
ssS'name'
p214
S'Arduino Diecimila or Duemilanove w/ ATmega168'
p215
sS'upload'
p216
(dp217
S'speed'
p218
S'19200'
p219
sS'maximum_size'
p220
S'14336'
p221
sS'protocol'
p222
S'arduino'
p223
ssaa(lp224
S'nano328'
p225
a(dp226
S'build'
p227
(dp228
S'core'
p229
S'arduino'
p230
sS'mcu'
p231
S'atmega328p'
p232
sS'f_cpu'
p233
S'16000000L'
p234
sS'variant'
p235
S'eightanaloginputs'
p236
ssS'bootloader'
p237
(dp238
S'extended_fuses'
p239
S'0x05'
p240
sS'high_fuses'
p241
S'0xDA'
p242
sS'low_fuses'
p243
S'0xFF'
p244
sS'lock_bits'
p245
S'0x0F'
p246
sS'file'
p247
S'ATmegaBOOT_168_atmega328.hex'
p248
sS'path'
p249
S'atmega'
p250
sS'unlock_bits'
p251
S'0x3F'
p252
ssS'name'
p253
S'Arduino Nano w/ ATmega328'
p254
sS'upload'
p255
(dp256
S'speed'
p257
S'57600'
p258
sS'maximum_size'
p259
S'30720'
p260
sS'protocol'
p261
S'arduino'
p262
ssaa(lp263
S'nano'
p264
a(dp265
S'build'
p266
(dp267
S'core'
p268
S'arduino'
p269
sS'mcu'
p270
S'atmega168'
p271
sS'f_cpu'
p272
S'16000000L'
p273
sS'variant'
p274
S'eightanaloginputs'
p275
ssS'bootloader'
p276
(dp277
S'extended_fuses'
p278
S'0x00'
p279
sS'high_fuses'
p280
S'0xdd'
p281
sS'low_fuses'
p282
S'0xff'
p283
sS'lock_bits'
p284
S'0x0F'
p285
sS'file'
p286
S'ATmegaBOOT_168_diecimila.hex'
p287
sS'path'
p288
S'atmega'
p289
sS'unlock_bits'
p290
S'0x3F'
p291
ssS'name'
p292
S'Arduino Nano w/ ATmega168'
p293
sS'upload'
p294
(dp295
S'speed'
p296
S'19200'
p297
sS'maximum_size'
p298
S'14336'
p299
sS'protocol'
p300
S'arduino'
p301
ssaa(lp302
S'mega2560'
p303
a(dp304
S'build'
p305
(dp306
S'core'
p307
S'arduino'
p308
sS'mcu'
p309
S'atmega2560'
p310
sS'f_cpu'
p311
S'16000000L'
p312
sS'variant'
p313
S'mega'
p314
ssS'bootloader'
p315
(dp316
S'extended_fuses'
p317
S'0xFD'
p318
sS'high_fuses'
p319
S'0xD8'
p320
sS'low_fuses'
p321
S'0xFF'
p322
sS'lock_bits'
p323
S'0x0F'
p324
sS'file'
p325
S'stk500boot_v2_mega2560.hex'
p326
sS'path'
p327
S'stk500v2'
p328
sS'unlock_bits'
p329
S'0x3F'
p330
ssS'name'
p331
S'Arduino Mega 2560 or Mega ADK'
p332
sS'upload'
p333
(dp334
S'speed'
p335
S'115200'
p336
sS'maximum_size'
p337
S'258048'
p338
sS'protocol'
p339
S'wiring'
p340
ssaa(lp341
S'mega'
p342
a(dp343
S'build'
p344
(dp345
S'core'
p346
S'arduino'
p347
sS'mcu'
p348
S'atmega1280'
p349
sS'f_cpu'
p350
S'16000000L'
p351
sS'variant'
p352
S'mega'
p353
ssS'bootloader'
p354
(dp355
S'extended_fuses'
p356
S'0xF5'
p357
sS'high_fuses'
p358
S'0xDA'
p359
sS'low_fuses'
p360
S'0xFF'
p361
sS'lock_bits'
p362
S'0x0F'
p363
sS'file'
p364
S'ATmegaBOOT_168_atmega1280.hex'
p365
sS'path'
p366
S'atmega'
p367
sS'unlock_bits'
p368
S'0x3F'
p369
ssS'name'
p370
S'Arduino Mega (ATmega1280)'
p371
sS'upload'
p372
(dp373
S'speed'
p374
S'57600'
p375
sS'maximum_size'
p376
S'126976'
p377
sS'protocol'
p378
S'arduino'
p379
ssaa(lp380
S'leonardo'
p381
a(dp382
S'build'
p383
(dp384
S'core'
p385
S'arduino'
p386
sS'f_cpu'
p387
S'16000000L'
p388
sS'vid'
p389
S'0x2341'
p390
sS'pid'
p391
S'0x8036'
p392
sS'variant'
p393
S'leonardo'
p394
sS'mcu'
p395
S'atmega32u4'
p396
ssS'bootloader'
p397
(dp398
S'extended_fuses'
p399
S'0xcb'
p400
sS'high_fuses'
p401
S'0xd8'
p402
sS'low_fuses'
p403
S'0xff'
p404
sS'lock_bits'
p405
S'0x2F'
p406
sS'file'
p407
S'Caterina-Leonardo.hex'
p408
sS'path'
p409
S'caterina'
p410
sS'unlock_bits'
p411
S'0x3F'
p412
ssS'name'
p413
S'Arduino Leonardo'
p414
sS'upload'
p415
(dp416
S'speed'
p417
S'57600'
p418
sS'maximum_size'
p419
S'28672'
p420
sS'protocol'
p421
S'avr109'
p422
sS'disable_flushing'
p423
S'true'
p424
ssaa(lp425
S'esplora'
p426
a(dp427
S'build'
p428
(dp429
S'core'
p430
S'arduino'
p431
sS'f_cpu'
p432
S'16000000L'
p433
sS'vid'
p434
S'0x2341'
p435
sS'pid'
p436
S'0x803C'
p437
sS'variant'
p438
S'leonardo'
p439
sS'mcu'
p440
S'atmega32u4'
p441
ssS'bootloader'
p442
(dp443
S'extended_fuses'
p444
S'0xcb'
p445
sS'high_fuses'
p446
S'0xd8'
p447
sS'low_fuses'
p448
S'0xff'
p449
sS'lock_bits'
p450
S'0x2F'
p451
sS'file'
p452
S'Caterina-Esplora.hex'
p453
sS'path'
p454
S'caterina'
p455
sS'unlock_bits'
p456
S'0x3F'
p457
ssS'name'
p458
S'Arduino Esplora'
p459
sS'upload'
p460
(dp461
S'speed'
p462
S'57600'
p463
sS'maximum_size'
p464
S'28672'
p465
sS'protocol'
p466
S'avr109'
p467
sS'disable_flushing'
p468
S'true'
p469
ssaa(lp470
S'micro'
p471
a(dp472
S'build'
p473
(dp474
S'core'
p475
S'arduino'
p476
sS'f_cpu'
p477
S'16000000L'
p478
sS'vid'
p479
S'0x2341'
p480
sS'pid'
p481
S'0x8037'
p482
sS'variant'
p483
S'micro'
p484
sS'mcu'
p485
S'atmega32u4'
p486
ssS'bootloader'
p487
(dp488
S'extended_fuses'
p489
S'0xcb'
p490
sS'high_fuses'
p491
S'0xd8'
p492
sS'low_fuses'
p493
S'0xff'
p494
sS'lock_bits'
p495
S'0x2F'
p496
sS'file'
p497
S'Caterina-Micro.hex'
p498
sS'path'
p499
S'caterina'
p500
sS'unlock_bits'
p501
S'0x3F'
p502
ssS'name'
p503
S'Arduino Micro'
p504
sS'upload'
p505
(dp506
S'speed'
p507
S'57600'
p508
sS'maximum_size'
p509
S'28672'
p510
sS'protocol'
p511
S'avr109'
p512
sS'disable_flushing'
p513
S'true'
p514
ssaa(lp515
S'mini328'
p516
a(dp517
S'build'
p518
(dp519
S'core'
p520
S'arduino'
p521
sS'mcu'
p522
S'atmega328p'
p523
sS'f_cpu'
p524
S'16000000L'
p525
sS'variant'
p526
S'eightanaloginputs'
p527
ssS'bootloader'
p528
(dp529
S'extended_fuses'
p530
S'0x05'
p531
sS'high_fuses'
p532
S'0xd8'
p533
sS'low_fuses'
p534
S'0xff'
p535
sS'lock_bits'
p536
S'0x0F'
p537
sS'file'
p538
S'optiboot_atmega328-Mini.hex'
p539
sS'path'
p540
S'optiboot'
p541
sS'unlock_bits'
p542
S'0x3F'
p543
ssS'name'
p544
S'Arduino Mini w/ ATmega328'
p545
sS'upload'
p546
(dp547
S'speed'
p548
S'115200'
p549
sS'maximum_size'
p550
S'28672'
p551
sS'protocol'
p552
S'arduino'
p553
ssaa(lp554
S'mini'
p555
a(dp556
S'build'
p557
(dp558
S'core'
p559
S'arduino'
p560
sS'mcu'
p561
S'atmega168'
p562
sS'f_cpu'
p563
S'16000000L'
p564
sS'variant'
p565
S'eightanaloginputs'
p566
ssS'bootloader'
p567
(dp568
S'extended_fuses'
p569
S'0x00'
p570
sS'high_fuses'
p571
S'0xdd'
p572
sS'low_fuses'
p573
S'0xff'
p574
sS'lock_bits'
p575
S'0x0F'
p576
sS'file'
p577
S'ATmegaBOOT_168_ng.hex'
p578
sS'path'
p579
S'atmega'
p580
sS'unlock_bits'
p581
S'0x3F'
p582
ssS'name'
p583
S'Arduino Mini w/ ATmega168'
p584
sS'upload'
p585
(dp586
S'speed'
p587
S'19200'
p588
sS'maximum_size'
p589
S'14336'
p590
sS'protocol'
p591
S'arduino'
p592
ssaa(lp593
S'ethernet'
p594
a(dp595
S'build'
p596
(dp597
S'f_cpu'
p598
S'16000000L'
p599
sS'mcu'
p600
S'atmega328p'
p601
sS'variant'
p602
S'standard'
p603
sS'core'
p604
S'arduino'
p605
ssS'bootloader'
p606
(dp607
S'extended_fuses'
p608
S'0x05'
p609
sS'high_fuses'
p610
S'0xde'
p611
sS'low_fuses'
p612
S'0xff'
p613
sS'lock_bits'
p614
S'0x0F'
p615
sS'file'
p616
S'optiboot_atmega328.hex'
p617
sS'path'
p618
S'optiboot'
p619
sS'unlock_bits'
p620
S'0x3F'
p621
ssS'name'
p622
S'Arduino Ethernet'
p623
sS'upload'
p624
(dp625
S'speed'
p626
S'115200'
p627
sS'maximum_size'
p628
S'32256'
p629
sS'protocol'
p630
S'arduino'
p631
ssaa(lp632
S'fio'
p633
a(dp634
S'build'
p635
(dp636
S'core'
p637
S'arduino'
p638
sS'mcu'
p639
S'atmega328p'
p640
sS'f_cpu'
p641
S'8000000L'
p642
sS'variant'
p643
S'eightanaloginputs'
p644
ssS'bootloader'
p645
(dp646
S'extended_fuses'
p647
S'0x05'
p648
sS'high_fuses'
p649
S'0xDA'
p650
sS'low_fuses'
p651
S'0xFF'
p652
sS'lock_bits'
p653
S'0x0F'
p654
sS'file'
p655
S'ATmegaBOOT_168_atmega328_pro_8MHz.hex'
p656
sS'path'
p657
S'arduino:atmega'
p658
sS'unlock_bits'
p659
S'0x3F'
p660
ssS'name'
p661
S'Arduino Fio'
p662
sS'upload'
p663
(dp664
S'speed'
p665
S'57600'
p666
sS'maximum_size'
p667
S'30720'
p668
sS'protocol'
p669
S'arduino'
p670
ssaa(lp671
S'bt328'
p672
a(dp673
S'build'
p674
(dp675
S'core'
p676
S'arduino'
p677
sS'mcu'
p678
S'atmega328p'
p679
sS'f_cpu'
p680
S'16000000L'
p681
sS'variant'
p682
S'eightanaloginputs'
p683
ssS'bootloader'
p684
(dp685
S'extended_fuses'
p686
S'0x05'
p687
sS'high_fuses'
p688
S'0xd8'
p689
sS'low_fuses'
p690
S'0xff'
p691
sS'lock_bits'
p692
S'0x0F'
p693
sS'file'
p694
S'ATmegaBOOT_168_atmega328_bt.hex'
p695
sS'path'
p696
S'bt'
p697
sS'unlock_bits'
p698
S'0x3F'
p699
ssS'name'
p700
S'Arduino BT w/ ATmega328'
p701
sS'upload'
p702
(dp703
S'speed'
p704
S'19200'
p705
sS'maximum_size'
p706
S'28672'
p707
sS'protocol'
p708
S'arduino'
p709
sS'disable_flushing'
p710
S'true'
p711
ssaa(lp712
S'bt'
p713
a(dp714
S'build'
p715
(dp716
S'core'
p717
S'arduino'
p718
sS'mcu'
p719
S'atmega168'
p720
sS'f_cpu'
p721
S'16000000L'
p722
sS'variant'
p723
S'eightanaloginputs'
p724
ssS'bootloader'
p725
(dp726
S'extended_fuses'
p727
S'0x00'
p728
sS'high_fuses'
p729
S'0xdd'
p730
sS'low_fuses'
p731
S'0xff'
p732
sS'lock_bits'
p733
S'0x0F'
p734
sS'file'
p735
S'ATmegaBOOT_168.hex'
p736
sS'path'
p737
S'bt'
p738
sS'unlock_bits'
p739
S'0x3F'
p740
ssS'name'
p741
S'Arduino BT w/ ATmega168'
p742
sS'upload'
p743
(dp744
S'speed'
p745
S'19200'
p746
sS'maximum_size'
p747
S'14336'
p748
sS'protocol'
p749
S'arduino'
p750
sS'disable_flushing'
p751
S'true'
p752
ssaa(lp753
S'LilyPadUSB'
p754
a(dp755
S'build'
p756
(dp757
S'core'
p758
S'arduino'
p759
sS'f_cpu'
p760
S'8000000L'
p761
sS'vid'
p762
S'0x1B4F'
p763
sS'pid'
p764
S'0x9208'
p765
sS'variant'
p766
S'leonardo'
p767
sS'mcu'
p768
S'atmega32u4'
p769
ssS'bootloader'
p770
(dp771
S'extended_fuses'
p772
S'0xce'
p773
sS'high_fuses'
p774
S'0xd8'
p775
sS'low_fuses'
p776
S'0xff'
p777
sS'lock_bits'
p778
S'0x2F'
p779
sS'file'
p780
S'Caterina-LilyPadUSB.hex'
p781
sS'path'
p782
S'caterina-LilyPadUSB'
p783
sS'unlock_bits'
p784
S'0x3F'
p785
ssS'name'
p786
S'LilyPad Arduino USB'
p787
sS'upload'
p788
(dp789
S'speed'
p790
S'57600'
p791
sS'maximum_size'
p792
S'28672'
p793
sS'protocol'
p794
S'avr109'
p795
sS'disable_flushing'
p796
S'true'
p797
ssaa(lp798
S'lilypad328'
p799
a(dp800
S'build'
p801
(dp802
S'core'
p803
S'arduino'
p804
sS'mcu'
p805
S'atmega328p'
p806
sS'f_cpu'
p807
S'8000000L'
p808
sS'variant'
p809
S'standard'
p810
ssS'bootloader'
p811
(dp812
S'extended_fuses'
p813
S'0x05'
p814
sS'high_fuses'
p815
S'0xDA'
p816
sS'low_fuses'
p817
S'0xFF'
p818
sS'lock_bits'
p819
S'0x0F'
p820
sS'file'
p821
S'ATmegaBOOT_168_atmega328_pro_8MHz.hex'
p822
sS'path'
p823
S'atmega'
p824
sS'unlock_bits'
p825
S'0x3F'
p826
ssS'name'
p827
S'LilyPad Arduino w/ ATmega328'
p828
sS'upload'
p829
(dp830
S'speed'
p831
S'57600'
p832
sS'maximum_size'
p833
S'30720'
p834
sS'protocol'
p835
S'arduino'
p836
ssaa(lp837
S'lilypad'
p838
a(dp839
S'build'
p840
(dp841
S'core'
p842
S'arduino'
p843
sS'mcu'
p844
S'atmega168'
p845
sS'f_cpu'
p846
S'8000000L'
p847
sS'variant'
p848
S'standard'
p849
ssS'bootloader'
p850
(dp851
S'extended_fuses'
p852
S'0x00'
p853
sS'high_fuses'
p854
S'0xdd'
p855
sS'low_fuses'
p856
S'0xe2'
p857
sS'lock_bits'
p858
S'0x0F'
p859
sS'file'
p860
S'LilyPadBOOT_168.hex'
p861
sS'path'
p862
S'lilypad'
p863
sS'unlock_bits'
p864
S'0x3F'
p865
ssS'name'
p866
S'LilyPad Arduino w/ ATmega168'
p867
sS'upload'
p868
(dp869
S'speed'
p870
S'19200'
p871
sS'maximum_size'
p872
S'14336'
p873
sS'protocol'
p874
S'arduino'
p875
ssaa(lp876
S'pro5v328'
p877
a(dp878
S'build'
p879
(dp880
S'core'
p881
S'arduino'
p882
sS'mcu'
p883
S'atmega328p'
p884
sS'f_cpu'
p885
S'16000000L'
p886
sS'variant'
p887
S'standard'
p888
ssS'bootloader'
p889
(dp890
S'extended_fuses'
p891
S'0x05'
p892
sS'high_fuses'
p893
S'0xDA'
p894
sS'low_fuses'
p895
S'0xFF'
p896
sS'lock_bits'
p897
S'0x0F'
p898
sS'file'
p899
S'ATmegaBOOT_168_atmega328.hex'
p900
sS'path'
p901
S'atmega'
p902
sS'unlock_bits'
p903
S'0x3F'
p904
ssS'name'
p905
S'Arduino Pro or Pro Mini (5V, 16 MHz) w/ ATmega328'
p906
sS'upload'
p907
(dp908
S'speed'
p909
S'57600'
p910
sS'maximum_size'
p911
S'30720'
p912
sS'protocol'
p913
S'arduino'
p914
ssaa(lp915
S'pro5v'
p916
a(dp917
S'build'
p918
(dp919
S'core'
p920
S'arduino'
p921
sS'mcu'
p922
S'atmega168'
p923
sS'f_cpu'
p924
S'16000000L'
p925
sS'variant'
p926
S'standard'
p927
ssS'bootloader'
p928
(dp929
S'extended_fuses'
p930
S'0x00'
p931
sS'high_fuses'
p932
S'0xdd'
p933
sS'low_fuses'
p934
S'0xff'
p935
sS'lock_bits'
p936
S'0x0F'
p937
sS'file'
p938
S'ATmegaBOOT_168_diecimila.hex'
p939
sS'path'
p940
S'atmega'
p941
sS'unlock_bits'
p942
S'0x3F'
p943
ssS'name'
p944
S'Arduino Pro or Pro Mini (5V, 16 MHz) w/ ATmega168'
p945
sS'upload'
p946
(dp947
S'speed'
p948
S'19200'
p949
sS'maximum_size'
p950
S'14336'
p951
sS'protocol'
p952
S'arduino'
p953
ssaa(lp954
S'pro328'
p955
a(dp956
S'build'
p957
(dp958
S'core'
p959
S'arduino'
p960
sS'mcu'
p961
S'atmega328p'
p962
sS'f_cpu'
p963
S'8000000L'
p964
sS'variant'
p965
S'standard'
p966
ssS'bootloader'
p967
(dp968
S'extended_fuses'
p969
S'0x05'
p970
sS'high_fuses'
p971
S'0xDA'
p972
sS'low_fuses'
p973
S'0xFF'
p974
sS'lock_bits'
p975
S'0x0F'
p976
sS'file'
p977
S'ATmegaBOOT_168_atmega328_pro_8MHz.hex'
p978
sS'path'
p979
S'atmega'
p980
sS'unlock_bits'
p981
S'0x3F'
p982
ssS'name'
p983
S'Arduino Pro or Pro Mini (3.3V, 8 MHz) w/ ATmega328'
p984
sS'upload'
p985
(dp986
S'speed'
p987
S'57600'
p988
sS'maximum_size'
p989
S'30720'
p990
sS'protocol'
p991
S'arduino'
p992
ssaa(lp993
S'pro'
p994
a(dp995
S'build'
p996
(dp997
S'core'
p998
S'arduino'
p999
sS'mcu'
p1000
S'atmega168'
p1001
sS'f_cpu'
p1002
S'8000000L'
p1003
sS'variant'
p1004
S'standard'
p1005
ssS'bootloader'
p1006
(dp1007
S'extended_fuses'
p1008
S'0x00'
p1009
sS'high_fuses'
p1010
S'0xdd'
p1011
sS'low_fuses'
p1012
S'0xc6'
p1013
sS'lock_bits'
p1014
S'0x0F'
p1015
sS'file'
p1016
S'ATmegaBOOT_168_pro_8MHz.hex'
p1017
sS'path'
p1018
S'atmega'
p1019
sS'unlock_bits'
p1020
S'0x3F'
p1021
ssS'name'
p1022
S'Arduino Pro or Pro Mini (3.3V, 8 MHz) w/ ATmega168'
p1023
sS'upload'
p1024
(dp1025
S'speed'
p1026
S'19200'
p1027
sS'maximum_size'
p1028
S'14336'
p1029
sS'protocol'
p1030
S'arduino'
p1031
ssaa(lp1032
S'atmega168'
p1033
a(dp1034
S'build'
p1035
(dp1036
S'core'
p1037
S'arduino'
p1038
sS'mcu'
p1039
S'atmega168'
p1040
sS'f_cpu'
p1041
S'16000000L'
p1042
sS'variant'
p1043
S'standard'
p1044
ssS'bootloader'
p1045
(dp1046
S'extended_fuses'
p1047
S'0x00'
p1048
sS'high_fuses'
p1049
S'0xdd'
p1050
sS'low_fuses'
p1051
S'0xff'
p1052
sS'lock_bits'
p1053
S'0x0F'
p1054
sS'file'
p1055
S'ATmegaBOOT_168_ng.hex'
p1056
sS'path'
p1057
S'atmega'
p1058
sS'unlock_bits'
p1059
S'0x3F'
p1060
ssS'name'
p1061
S'Arduino NG or older w/ ATmega168'
p1062
sS'upload'
p1063
(dp1064
S'speed'
p1065
S'19200'
p1066
sS'maximum_size'
p1067
S'14336'
p1068
sS'protocol'
p1069
S'arduino'
p1070
ssaa(lp1071
S'atmega8'
p1072
a(dp1073
S'build'
p1074
(dp1075
S'core'
p1076
S'arduino'
p1077
sS'mcu'
p1078
S'atmega8'
p1079
sS'f_cpu'
p1080
S'16000000L'
p1081
sS'variant'
p1082
S'standard'
p1083
ssS'bootloader'
p1084
(dp1085
S'high_fuses'
p1086
S'0xca'
p1087
sS'low_fuses'
p1088
S'0xdf'
p1089
sS'lock_bits'
p1090
S'0x0F'
p1091
sS'file'
p1092
S'ATmegaBOOT-prod-firmware-2009-11-07.hex'
p1093
sS'path'
p1094
S'atmega8'
p1095
sS'unlock_bits'
p1096
S'0x3F'
p1097
ssS'name'
p1098
S'Arduino NG or older w/ ATmega8'
p1099
sS'upload'
p1100
(dp1101
S'speed'
p1102
S'19200'
p1103
sS'maximum_size'
p1104
S'7168'
p1105
sS'protocol'
p1106
S'arduino'
p1107
ssaa(lp1108
S'robotControl'
p1109
a(dp1110
S'build'
p1111
(dp1112
S'core'
p1113
S'robot'
p1114
sS'f_cpu'
p1115
S'16000000L'
p1116
sS'vid'
p1117
S'0x2341'
p1118
sS'pid'
p1119
S'0x8038'
p1120
sS'variant'
p1121
S'robot_control'
p1122
sS'mcu'
p1123
S'atmega32u4'
p1124
ssS'bootloader'
p1125
(dp1126
S'extended_fuses'
p1127
S'0xcb'
p1128
sS'high_fuses'
p1129
S'0xd8'
p1130
sS'low_fuses'
p1131
S'0xff'
p1132
sS'lock_bits'
p1133
S'0x2F'
p1134
sS'file'
p1135
S'Caterina-Robot-Control.hex'
p1136
sS'path'
p1137
S'caterina-Arduino_Robot'
p1138
sS'unlock_bits'
p1139
S'0x3F'
p1140
ssS'name'
p1141
S'Arduino Robot Control'
p1142
sS'upload'
p1143
(dp1144
S'speed'
p1145
S'57600'
p1146
sS'maximum_size'
p1147
S'28672'
p1148
sS'protocol'
p1149
S'avr109'
p1150
sS'disable_flushing'
p1151
S'true'
p1152
ssaa(lp1153
S'robotMotor'
p1154
a(dp1155
S'build'
p1156
(dp1157
S'core'
p1158
S'robot'
p1159
sS'f_cpu'
p1160
S'16000000L'
p1161
sS'vid'
p1162
S'0x2341'
p1163
sS'pid'
p1164
S'0x8039'
p1165
sS'variant'
p1166
S'robot_motor'
p1167
sS'mcu'
p1168
S'atmega32u4'
p1169
ssS'bootloader'
p1170
(dp1171
S'extended_fuses'
p1172
S'0xcb'
p1173
sS'high_fuses'
p1174
S'0xd8'
p1175
sS'low_fuses'
p1176
S'0xff'
p1177
sS'lock_bits'
p1178
S'0x2F'
p1179
sS'file'
p1180
S'Caterina-Robot-Motor.hex'
p1181
sS'path'
p1182
S'caterina-Arduino_Robot'
p1183
sS'unlock_bits'
p1184
S'0x3F'
p1185
ssS'name'
p1186
S'Arduino Robot Motor'
p1187
sS'upload'
p1188
(dp1189
S'speed'
p1190
S'57600'
p1191
sS'maximum_size'
p1192
S'28672'
p1193
sS'protocol'
p1194
S'avr109'
p1195
sS'disable_flushing'
p1196
S'true'
p1197
ssaatp1198
Rp1199
(dp1200
S'default'
p1201
S'uno'
p1202
sbtp1203
a(S'cxx'
p1204
S'/usr/share/arduino/hardware/tools/avr/bin/avr-g++'
p1205
tp1206
a.