(lp0
(S'cppflags'
p1
ccopy_reg
_reconstructor
p2
(cino.utils
SpaceList
p3
c__builtin__
list
p4
(lp5
S'-mmcu=atmega328p'
p6
aS'-DF_CPU=16000000L'
p7
aS'-DARDUINO=105'
p8
aS'-I/usr/share/arduino/hardware/arduino/cores/arduino'
p9
aS'-ffunction-sections'
p10
aS'-fdata-sections'
p11
aS'-g'
p12
aS'-Os'
p13
aS'-w'
p14
aS'-I/usr/share/arduino/hardware/arduino/variants/eightanaloginputs'
p15
aS'-I/usr/share/arduino/libraries/VirtualWire'
p16
aS'-I/usr/share/arduino/libraries/VirtualWire/util'
p17
aS'-I/usr/share/arduino/libraries/VirtualWire/doc'
p18
aS'-I/usr/share/arduino/hardware/arduino/cores/arduino'
p19
aS'-I/usr/share/arduino/hardware/arduino/cores/arduino/avr-libc'
p20
atp21
Rp22
tp23
a(S'cxx'
p24
S'/usr/share/arduino/hardware/tools/avr/bin/avr-g++'
p25
tp26
a(S'arduino_libraries_dir'
p27
S'/usr/share/arduino/libraries'
p28
tp29
a(S'avrdude'
p30
S'/usr/share/arduino/hardware/tools/avrdude'
p31
tp32
a(S'ar'
p33
S'/usr/share/arduino/hardware/tools/avr/bin/avr-ar'
p34
tp35
a(S'names'
p36
(dp37
S'cpp'
p38
S'%s.cpp'
p39
sS'obj'
p40
S'%s.o'
p41
sS'lib'
p42
S'lib%s.a'
p43
sS'deps'
p44
S'%s.d'
p45
stp46
a(S'ldflags'
p47
g2
(g3
g4
(lp48
g6
aS'-Wl,-Os'
p49
aS'-Wl,--gc-sections'
p50
atp51
Rp52
tp53
a(S'arduino_lib_version'
p54
g2
(cino.environment
Version
p55
c__builtin__
tuple
p56
(I1
I0
I5
tp57
tp58
Rp59
tp60
a(S'objcopy'
p61
S'/usr/share/arduino/hardware/tools/avr/bin/avr-objcopy'
p62
tp63
a(S'board_models'
p64
cino.environment
BoardModels
p65
((lp66
(lp67
S'uno'
p68
a(dp69
S'bootloader'
p70
(dp71
S'extended_fuses'
p72
S'0x05'
p73
sS'high_fuses'
p74
S'0xde'
p75
sS'low_fuses'
p76
S'0xff'
p77
sS'lock_bits'
p78
S'0x0F'
p79
sS'file'
p80
S'optiboot_atmega328.hex'
p81
sS'path'
p82
S'optiboot'
p83
sS'unlock_bits'
p84
S'0x3F'
p85
ssS'build'
p86
(dp87
S'core'
p88
S'arduino'
p89
sS'mcu'
p90
S'atmega328p'
p91
sS'f_cpu'
p92
S'16000000L'
p93
sS'variant'
p94
S'standard'
p95
ssS'name'
p96
S'Arduino Uno'
p97
sS'upload'
p98
(dp99
S'speed'
p100
S'115200'
p101
sS'maximum_size'
p102
S'32256'
p103
sS'protocol'
p104
S'arduino'
p105
ssaa(lp106
S'atmega328'
p107
a(dp108
S'bootloader'
p109
(dp110
S'extended_fuses'
p111
S'0x05'
p112
sS'high_fuses'
p113
S'0xDA'
p114
sS'low_fuses'
p115
S'0xFF'
p116
sS'lock_bits'
p117
S'0x0F'
p118
sS'file'
p119
S'ATmegaBOOT_168_atmega328.hex'
p120
sS'path'
p121
S'atmega'
p122
sS'unlock_bits'
p123
S'0x3F'
p124
ssS'build'
p125
(dp126
S'core'
p127
S'arduino'
p128
sS'mcu'
p129
S'atmega328p'
p130
sS'f_cpu'
p131
S'16000000L'
p132
sS'variant'
p133
S'standard'
p134
ssS'name'
p135
S'Arduino Duemilanove w/ ATmega328'
p136
sS'upload'
p137
(dp138
S'speed'
p139
S'57600'
p140
sS'maximum_size'
p141
S'30720'
p142
sS'protocol'
p143
S'arduino'
p144
ssaa(lp145
S'diecimila'
p146
a(dp147
S'bootloader'
p148
(dp149
S'extended_fuses'
p150
S'0x00'
p151
sS'high_fuses'
p152
S'0xdd'
p153
sS'low_fuses'
p154
S'0xff'
p155
sS'lock_bits'
p156
S'0x0F'
p157
sS'file'
p158
S'ATmegaBOOT_168_diecimila.hex'
p159
sS'path'
p160
S'atmega'
p161
sS'unlock_bits'
p162
S'0x3F'
p163
ssS'build'
p164
(dp165
S'core'
p166
S'arduino'
p167
sS'mcu'
p168
S'atmega168'
p169
sS'f_cpu'
p170
S'16000000L'
p171
sS'variant'
p172
S'standard'
p173
ssS'name'
p174
S'Arduino Diecimila or Duemilanove w/ ATmega168'
p175
sS'upload'
p176
(dp177
S'speed'
p178
S'19200'
p179
sS'maximum_size'
p180
S'14336'
p181
sS'protocol'
p182
S'arduino'
p183
ssaa(lp184
S'nano328'
p185
a(dp186
S'bootloader'
p187
(dp188
S'extended_fuses'
p189
S'0x05'
p190
sS'high_fuses'
p191
S'0xDA'
p192
sS'low_fuses'
p193
S'0xFF'
p194
sS'lock_bits'
p195
S'0x0F'
p196
sS'file'
p197
S'ATmegaBOOT_168_atmega328.hex'
p198
sS'path'
p199
S'atmega'
p200
sS'unlock_bits'
p201
S'0x3F'
p202
ssS'build'
p203
(dp204
S'core'
p205
S'arduino'
p206
sS'mcu'
p207
S'atmega328p'
p208
sS'f_cpu'
p209
S'16000000L'
p210
sS'variant'
p211
S'eightanaloginputs'
p212
ssS'name'
p213
S'Arduino Nano w/ ATmega328'
p214
sS'upload'
p215
(dp216
S'speed'
p217
S'57600'
p218
sS'maximum_size'
p219
S'30720'
p220
sS'protocol'
p221
S'arduino'
p222
ssaa(lp223
S'nano'
p224
a(dp225
S'bootloader'
p226
(dp227
S'extended_fuses'
p228
S'0x00'
p229
sS'high_fuses'
p230
S'0xdd'
p231
sS'low_fuses'
p232
S'0xff'
p233
sS'lock_bits'
p234
S'0x0F'
p235
sS'file'
p236
S'ATmegaBOOT_168_diecimila.hex'
p237
sS'path'
p238
S'atmega'
p239
sS'unlock_bits'
p240
S'0x3F'
p241
ssS'build'
p242
(dp243
S'core'
p244
S'arduino'
p245
sS'mcu'
p246
S'atmega168'
p247
sS'f_cpu'
p248
S'16000000L'
p249
sS'variant'
p250
S'eightanaloginputs'
p251
ssS'name'
p252
S'Arduino Nano w/ ATmega168'
p253
sS'upload'
p254
(dp255
S'speed'
p256
S'19200'
p257
sS'maximum_size'
p258
S'14336'
p259
sS'protocol'
p260
S'arduino'
p261
ssaa(lp262
S'mega2560'
p263
a(dp264
S'bootloader'
p265
(dp266
S'extended_fuses'
p267
S'0xFD'
p268
sS'high_fuses'
p269
S'0xD8'
p270
sS'low_fuses'
p271
S'0xFF'
p272
sS'lock_bits'
p273
S'0x0F'
p274
sS'file'
p275
S'stk500boot_v2_mega2560.hex'
p276
sS'path'
p277
S'stk500v2'
p278
sS'unlock_bits'
p279
S'0x3F'
p280
ssS'build'
p281
(dp282
S'core'
p283
S'arduino'
p284
sS'mcu'
p285
S'atmega2560'
p286
sS'f_cpu'
p287
S'16000000L'
p288
sS'variant'
p289
S'mega'
p290
ssS'name'
p291
S'Arduino Mega 2560 or Mega ADK'
p292
sS'upload'
p293
(dp294
S'speed'
p295
S'115200'
p296
sS'maximum_size'
p297
S'258048'
p298
sS'protocol'
p299
S'wiring'
p300
ssaa(lp301
S'mega'
p302
a(dp303
S'bootloader'
p304
(dp305
S'extended_fuses'
p306
S'0xF5'
p307
sS'high_fuses'
p308
S'0xDA'
p309
sS'low_fuses'
p310
S'0xFF'
p311
sS'lock_bits'
p312
S'0x0F'
p313
sS'file'
p314
S'ATmegaBOOT_168_atmega1280.hex'
p315
sS'path'
p316
S'atmega'
p317
sS'unlock_bits'
p318
S'0x3F'
p319
ssS'build'
p320
(dp321
S'core'
p322
S'arduino'
p323
sS'mcu'
p324
S'atmega1280'
p325
sS'f_cpu'
p326
S'16000000L'
p327
sS'variant'
p328
S'mega'
p329
ssS'name'
p330
S'Arduino Mega (ATmega1280)'
p331
sS'upload'
p332
(dp333
S'speed'
p334
S'57600'
p335
sS'maximum_size'
p336
S'126976'
p337
sS'protocol'
p338
S'arduino'
p339
ssaa(lp340
S'leonardo'
p341
a(dp342
S'bootloader'
p343
(dp344
S'extended_fuses'
p345
S'0xcb'
p346
sS'high_fuses'
p347
S'0xd8'
p348
sS'low_fuses'
p349
S'0xff'
p350
sS'lock_bits'
p351
S'0x2F'
p352
sS'file'
p353
S'Caterina-Leonardo.hex'
p354
sS'path'
p355
S'caterina'
p356
sS'unlock_bits'
p357
S'0x3F'
p358
ssS'build'
p359
(dp360
S'core'
p361
S'arduino'
p362
sS'f_cpu'
p363
S'16000000L'
p364
sS'vid'
p365
S'0x2341'
p366
sS'pid'
p367
S'0x8036'
p368
sS'variant'
p369
S'leonardo'
p370
sS'mcu'
p371
S'atmega32u4'
p372
ssS'name'
p373
S'Arduino Leonardo'
p374
sS'upload'
p375
(dp376
S'speed'
p377
S'57600'
p378
sS'maximum_size'
p379
S'28672'
p380
sS'protocol'
p381
S'avr109'
p382
sS'disable_flushing'
p383
S'true'
p384
ssaa(lp385
S'esplora'
p386
a(dp387
S'bootloader'
p388
(dp389
S'extended_fuses'
p390
S'0xcb'
p391
sS'high_fuses'
p392
S'0xd8'
p393
sS'low_fuses'
p394
S'0xff'
p395
sS'lock_bits'
p396
S'0x2F'
p397
sS'file'
p398
S'Caterina-Esplora.hex'
p399
sS'path'
p400
S'caterina'
p401
sS'unlock_bits'
p402
S'0x3F'
p403
ssS'build'
p404
(dp405
S'core'
p406
S'arduino'
p407
sS'f_cpu'
p408
S'16000000L'
p409
sS'vid'
p410
S'0x2341'
p411
sS'pid'
p412
S'0x803C'
p413
sS'variant'
p414
S'leonardo'
p415
sS'mcu'
p416
S'atmega32u4'
p417
ssS'name'
p418
S'Arduino Esplora'
p419
sS'upload'
p420
(dp421
S'speed'
p422
S'57600'
p423
sS'maximum_size'
p424
S'28672'
p425
sS'protocol'
p426
S'avr109'
p427
sS'disable_flushing'
p428
S'true'
p429
ssaa(lp430
S'micro'
p431
a(dp432
S'bootloader'
p433
(dp434
S'extended_fuses'
p435
S'0xcb'
p436
sS'high_fuses'
p437
S'0xd8'
p438
sS'low_fuses'
p439
S'0xff'
p440
sS'lock_bits'
p441
S'0x2F'
p442
sS'file'
p443
S'Caterina-Micro.hex'
p444
sS'path'
p445
S'caterina'
p446
sS'unlock_bits'
p447
S'0x3F'
p448
ssS'build'
p449
(dp450
S'core'
p451
S'arduino'
p452
sS'f_cpu'
p453
S'16000000L'
p454
sS'vid'
p455
S'0x2341'
p456
sS'pid'
p457
S'0x8037'
p458
sS'variant'
p459
S'micro'
p460
sS'mcu'
p461
S'atmega32u4'
p462
ssS'name'
p463
S'Arduino Micro'
p464
sS'upload'
p465
(dp466
S'speed'
p467
S'57600'
p468
sS'maximum_size'
p469
S'28672'
p470
sS'protocol'
p471
S'avr109'
p472
sS'disable_flushing'
p473
S'true'
p474
ssaa(lp475
S'mini328'
p476
a(dp477
S'bootloader'
p478
(dp479
S'extended_fuses'
p480
S'0x05'
p481
sS'high_fuses'
p482
S'0xd8'
p483
sS'low_fuses'
p484
S'0xff'
p485
sS'lock_bits'
p486
S'0x0F'
p487
sS'file'
p488
S'optiboot_atmega328-Mini.hex'
p489
sS'path'
p490
S'optiboot'
p491
sS'unlock_bits'
p492
S'0x3F'
p493
ssS'build'
p494
(dp495
S'core'
p496
S'arduino'
p497
sS'mcu'
p498
S'atmega328p'
p499
sS'f_cpu'
p500
S'16000000L'
p501
sS'variant'
p502
S'eightanaloginputs'
p503
ssS'name'
p504
S'Arduino Mini w/ ATmega328'
p505
sS'upload'
p506
(dp507
S'speed'
p508
S'115200'
p509
sS'maximum_size'
p510
S'28672'
p511
sS'protocol'
p512
S'arduino'
p513
ssaa(lp514
S'mini'
p515
a(dp516
S'bootloader'
p517
(dp518
S'extended_fuses'
p519
S'0x00'
p520
sS'high_fuses'
p521
S'0xdd'
p522
sS'low_fuses'
p523
S'0xff'
p524
sS'lock_bits'
p525
S'0x0F'
p526
sS'file'
p527
S'ATmegaBOOT_168_ng.hex'
p528
sS'path'
p529
S'atmega'
p530
sS'unlock_bits'
p531
S'0x3F'
p532
ssS'build'
p533
(dp534
S'core'
p535
S'arduino'
p536
sS'mcu'
p537
S'atmega168'
p538
sS'f_cpu'
p539
S'16000000L'
p540
sS'variant'
p541
S'eightanaloginputs'
p542
ssS'name'
p543
S'Arduino Mini w/ ATmega168'
p544
sS'upload'
p545
(dp546
S'speed'
p547
S'19200'
p548
sS'maximum_size'
p549
S'14336'
p550
sS'protocol'
p551
S'arduino'
p552
ssaa(lp553
S'ethernet'
p554
a(dp555
S'bootloader'
p556
(dp557
S'extended_fuses'
p558
S'0x05'
p559
sS'high_fuses'
p560
S'0xde'
p561
sS'low_fuses'
p562
S'0xff'
p563
sS'lock_bits'
p564
S'0x0F'
p565
sS'file'
p566
S'optiboot_atmega328.hex'
p567
sS'path'
p568
S'optiboot'
p569
sS'unlock_bits'
p570
S'0x3F'
p571
ssS'build'
p572
(dp573
S'f_cpu'
p574
S'16000000L'
p575
sS'mcu'
p576
S'atmega328p'
p577
sS'variant'
p578
S'standard'
p579
sS'core'
p580
S'arduino'
p581
ssS'name'
p582
S'Arduino Ethernet'
p583
sS'upload'
p584
(dp585
S'speed'
p586
S'115200'
p587
sS'maximum_size'
p588
S'32256'
p589
sS'protocol'
p590
S'arduino'
p591
ssaa(lp592
S'fio'
p593
a(dp594
S'bootloader'
p595
(dp596
S'extended_fuses'
p597
S'0x05'
p598
sS'high_fuses'
p599
S'0xDA'
p600
sS'low_fuses'
p601
S'0xFF'
p602
sS'lock_bits'
p603
S'0x0F'
p604
sS'file'
p605
S'ATmegaBOOT_168_atmega328_pro_8MHz.hex'
p606
sS'path'
p607
S'arduino:atmega'
p608
sS'unlock_bits'
p609
S'0x3F'
p610
ssS'build'
p611
(dp612
S'core'
p613
S'arduino'
p614
sS'mcu'
p615
S'atmega328p'
p616
sS'f_cpu'
p617
S'8000000L'
p618
sS'variant'
p619
S'eightanaloginputs'
p620
ssS'name'
p621
S'Arduino Fio'
p622
sS'upload'
p623
(dp624
S'speed'
p625
S'57600'
p626
sS'maximum_size'
p627
S'30720'
p628
sS'protocol'
p629
S'arduino'
p630
ssaa(lp631
S'bt328'
p632
a(dp633
S'bootloader'
p634
(dp635
S'extended_fuses'
p636
S'0x05'
p637
sS'high_fuses'
p638
S'0xd8'
p639
sS'low_fuses'
p640
S'0xff'
p641
sS'lock_bits'
p642
S'0x0F'
p643
sS'file'
p644
S'ATmegaBOOT_168_atmega328_bt.hex'
p645
sS'path'
p646
S'bt'
p647
sS'unlock_bits'
p648
S'0x3F'
p649
ssS'build'
p650
(dp651
S'core'
p652
S'arduino'
p653
sS'mcu'
p654
S'atmega328p'
p655
sS'f_cpu'
p656
S'16000000L'
p657
sS'variant'
p658
S'eightanaloginputs'
p659
ssS'name'
p660
S'Arduino BT w/ ATmega328'
p661
sS'upload'
p662
(dp663
S'speed'
p664
S'19200'
p665
sS'maximum_size'
p666
S'28672'
p667
sS'protocol'
p668
S'arduino'
p669
sS'disable_flushing'
p670
S'true'
p671
ssaa(lp672
S'bt'
p673
a(dp674
S'bootloader'
p675
(dp676
S'extended_fuses'
p677
S'0x00'
p678
sS'high_fuses'
p679
S'0xdd'
p680
sS'low_fuses'
p681
S'0xff'
p682
sS'lock_bits'
p683
S'0x0F'
p684
sS'file'
p685
S'ATmegaBOOT_168.hex'
p686
sS'path'
p687
S'bt'
p688
sS'unlock_bits'
p689
S'0x3F'
p690
ssS'build'
p691
(dp692
S'core'
p693
S'arduino'
p694
sS'mcu'
p695
S'atmega168'
p696
sS'f_cpu'
p697
S'16000000L'
p698
sS'variant'
p699
S'eightanaloginputs'
p700
ssS'name'
p701
S'Arduino BT w/ ATmega168'
p702
sS'upload'
p703
(dp704
S'speed'
p705
S'19200'
p706
sS'maximum_size'
p707
S'14336'
p708
sS'protocol'
p709
S'arduino'
p710
sS'disable_flushing'
p711
S'true'
p712
ssaa(lp713
S'LilyPadUSB'
p714
a(dp715
S'bootloader'
p716
(dp717
S'extended_fuses'
p718
S'0xce'
p719
sS'high_fuses'
p720
S'0xd8'
p721
sS'low_fuses'
p722
S'0xff'
p723
sS'lock_bits'
p724
S'0x2F'
p725
sS'file'
p726
S'Caterina-LilyPadUSB.hex'
p727
sS'path'
p728
S'caterina-LilyPadUSB'
p729
sS'unlock_bits'
p730
S'0x3F'
p731
ssS'build'
p732
(dp733
S'core'
p734
S'arduino'
p735
sS'f_cpu'
p736
S'8000000L'
p737
sS'vid'
p738
S'0x1B4F'
p739
sS'pid'
p740
S'0x9208'
p741
sS'variant'
p742
S'leonardo'
p743
sS'mcu'
p744
S'atmega32u4'
p745
ssS'name'
p746
S'LilyPad Arduino USB'
p747
sS'upload'
p748
(dp749
S'speed'
p750
S'57600'
p751
sS'maximum_size'
p752
S'28672'
p753
sS'protocol'
p754
S'avr109'
p755
sS'disable_flushing'
p756
S'true'
p757
ssaa(lp758
S'lilypad328'
p759
a(dp760
S'bootloader'
p761
(dp762
S'extended_fuses'
p763
S'0x05'
p764
sS'high_fuses'
p765
S'0xDA'
p766
sS'low_fuses'
p767
S'0xFF'
p768
sS'lock_bits'
p769
S'0x0F'
p770
sS'file'
p771
S'ATmegaBOOT_168_atmega328_pro_8MHz.hex'
p772
sS'path'
p773
S'atmega'
p774
sS'unlock_bits'
p775
S'0x3F'
p776
ssS'build'
p777
(dp778
S'core'
p779
S'arduino'
p780
sS'mcu'
p781
S'atmega328p'
p782
sS'f_cpu'
p783
S'8000000L'
p784
sS'variant'
p785
S'standard'
p786
ssS'name'
p787
S'LilyPad Arduino w/ ATmega328'
p788
sS'upload'
p789
(dp790
S'speed'
p791
S'57600'
p792
sS'maximum_size'
p793
S'30720'
p794
sS'protocol'
p795
S'arduino'
p796
ssaa(lp797
S'lilypad'
p798
a(dp799
S'bootloader'
p800
(dp801
S'extended_fuses'
p802
S'0x00'
p803
sS'high_fuses'
p804
S'0xdd'
p805
sS'low_fuses'
p806
S'0xe2'
p807
sS'lock_bits'
p808
S'0x0F'
p809
sS'file'
p810
S'LilyPadBOOT_168.hex'
p811
sS'path'
p812
S'lilypad'
p813
sS'unlock_bits'
p814
S'0x3F'
p815
ssS'build'
p816
(dp817
S'core'
p818
S'arduino'
p819
sS'mcu'
p820
S'atmega168'
p821
sS'f_cpu'
p822
S'8000000L'
p823
sS'variant'
p824
S'standard'
p825
ssS'name'
p826
S'LilyPad Arduino w/ ATmega168'
p827
sS'upload'
p828
(dp829
S'speed'
p830
S'19200'
p831
sS'maximum_size'
p832
S'14336'
p833
sS'protocol'
p834
S'arduino'
p835
ssaa(lp836
S'pro5v328'
p837
a(dp838
S'bootloader'
p839
(dp840
S'extended_fuses'
p841
S'0x05'
p842
sS'high_fuses'
p843
S'0xDA'
p844
sS'low_fuses'
p845
S'0xFF'
p846
sS'lock_bits'
p847
S'0x0F'
p848
sS'file'
p849
S'ATmegaBOOT_168_atmega328.hex'
p850
sS'path'
p851
S'atmega'
p852
sS'unlock_bits'
p853
S'0x3F'
p854
ssS'build'
p855
(dp856
S'core'
p857
S'arduino'
p858
sS'mcu'
p859
S'atmega328p'
p860
sS'f_cpu'
p861
S'16000000L'
p862
sS'variant'
p863
S'standard'
p864
ssS'name'
p865
S'Arduino Pro or Pro Mini (5V, 16 MHz) w/ ATmega328'
p866
sS'upload'
p867
(dp868
S'speed'
p869
S'57600'
p870
sS'maximum_size'
p871
S'30720'
p872
sS'protocol'
p873
S'arduino'
p874
ssaa(lp875
S'pro5v'
p876
a(dp877
S'bootloader'
p878
(dp879
S'extended_fuses'
p880
S'0x00'
p881
sS'high_fuses'
p882
S'0xdd'
p883
sS'low_fuses'
p884
S'0xff'
p885
sS'lock_bits'
p886
S'0x0F'
p887
sS'file'
p888
S'ATmegaBOOT_168_diecimila.hex'
p889
sS'path'
p890
S'atmega'
p891
sS'unlock_bits'
p892
S'0x3F'
p893
ssS'build'
p894
(dp895
S'core'
p896
S'arduino'
p897
sS'mcu'
p898
S'atmega168'
p899
sS'f_cpu'
p900
S'16000000L'
p901
sS'variant'
p902
S'standard'
p903
ssS'name'
p904
S'Arduino Pro or Pro Mini (5V, 16 MHz) w/ ATmega168'
p905
sS'upload'
p906
(dp907
S'speed'
p908
S'19200'
p909
sS'maximum_size'
p910
S'14336'
p911
sS'protocol'
p912
S'arduino'
p913
ssaa(lp914
S'pro328'
p915
a(dp916
S'bootloader'
p917
(dp918
S'extended_fuses'
p919
S'0x05'
p920
sS'high_fuses'
p921
S'0xDA'
p922
sS'low_fuses'
p923
S'0xFF'
p924
sS'lock_bits'
p925
S'0x0F'
p926
sS'file'
p927
S'ATmegaBOOT_168_atmega328_pro_8MHz.hex'
p928
sS'path'
p929
S'atmega'
p930
sS'unlock_bits'
p931
S'0x3F'
p932
ssS'build'
p933
(dp934
S'core'
p935
S'arduino'
p936
sS'mcu'
p937
S'atmega328p'
p938
sS'f_cpu'
p939
S'8000000L'
p940
sS'variant'
p941
S'standard'
p942
ssS'name'
p943
S'Arduino Pro or Pro Mini (3.3V, 8 MHz) w/ ATmega328'
p944
sS'upload'
p945
(dp946
S'speed'
p947
S'57600'
p948
sS'maximum_size'
p949
S'30720'
p950
sS'protocol'
p951
S'arduino'
p952
ssaa(lp953
S'pro'
p954
a(dp955
S'bootloader'
p956
(dp957
S'extended_fuses'
p958
S'0x00'
p959
sS'high_fuses'
p960
S'0xdd'
p961
sS'low_fuses'
p962
S'0xc6'
p963
sS'lock_bits'
p964
S'0x0F'
p965
sS'file'
p966
S'ATmegaBOOT_168_pro_8MHz.hex'
p967
sS'path'
p968
S'atmega'
p969
sS'unlock_bits'
p970
S'0x3F'
p971
ssS'build'
p972
(dp973
S'core'
p974
S'arduino'
p975
sS'mcu'
p976
S'atmega168'
p977
sS'f_cpu'
p978
S'8000000L'
p979
sS'variant'
p980
S'standard'
p981
ssS'name'
p982
S'Arduino Pro or Pro Mini (3.3V, 8 MHz) w/ ATmega168'
p983
sS'upload'
p984
(dp985
S'speed'
p986
S'19200'
p987
sS'maximum_size'
p988
S'14336'
p989
sS'protocol'
p990
S'arduino'
p991
ssaa(lp992
S'atmega168'
p993
a(dp994
S'bootloader'
p995
(dp996
S'extended_fuses'
p997
S'0x00'
p998
sS'high_fuses'
p999
S'0xdd'
p1000
sS'low_fuses'
p1001
S'0xff'
p1002
sS'lock_bits'
p1003
S'0x0F'
p1004
sS'file'
p1005
S'ATmegaBOOT_168_ng.hex'
p1006
sS'path'
p1007
S'atmega'
p1008
sS'unlock_bits'
p1009
S'0x3F'
p1010
ssS'build'
p1011
(dp1012
S'core'
p1013
S'arduino'
p1014
sS'mcu'
p1015
S'atmega168'
p1016
sS'f_cpu'
p1017
S'16000000L'
p1018
sS'variant'
p1019
S'standard'
p1020
ssS'name'
p1021
S'Arduino NG or older w/ ATmega168'
p1022
sS'upload'
p1023
(dp1024
S'speed'
p1025
S'19200'
p1026
sS'maximum_size'
p1027
S'14336'
p1028
sS'protocol'
p1029
S'arduino'
p1030
ssaa(lp1031
S'atmega8'
p1032
a(dp1033
S'bootloader'
p1034
(dp1035
S'high_fuses'
p1036
S'0xca'
p1037
sS'low_fuses'
p1038
S'0xdf'
p1039
sS'lock_bits'
p1040
S'0x0F'
p1041
sS'file'
p1042
S'ATmegaBOOT-prod-firmware-2009-11-07.hex'
p1043
sS'path'
p1044
S'atmega8'
p1045
sS'unlock_bits'
p1046
S'0x3F'
p1047
ssS'build'
p1048
(dp1049
S'core'
p1050
S'arduino'
p1051
sS'mcu'
p1052
S'atmega8'
p1053
sS'f_cpu'
p1054
S'16000000L'
p1055
sS'variant'
p1056
S'standard'
p1057
ssS'name'
p1058
S'Arduino NG or older w/ ATmega8'
p1059
sS'upload'
p1060
(dp1061
S'speed'
p1062
S'19200'
p1063
sS'maximum_size'
p1064
S'7168'
p1065
sS'protocol'
p1066
S'arduino'
p1067
ssaa(lp1068
S'robotControl'
p1069
a(dp1070
S'bootloader'
p1071
(dp1072
S'extended_fuses'
p1073
S'0xcb'
p1074
sS'high_fuses'
p1075
S'0xd8'
p1076
sS'low_fuses'
p1077
S'0xff'
p1078
sS'lock_bits'
p1079
S'0x2F'
p1080
sS'file'
p1081
S'Caterina-Robot-Control.hex'
p1082
sS'path'
p1083
S'caterina-Arduino_Robot'
p1084
sS'unlock_bits'
p1085
S'0x3F'
p1086
ssS'build'
p1087
(dp1088
S'core'
p1089
S'robot'
p1090
sS'f_cpu'
p1091
S'16000000L'
p1092
sS'vid'
p1093
S'0x2341'
p1094
sS'pid'
p1095
S'0x8038'
p1096
sS'variant'
p1097
S'robot_control'
p1098
sS'mcu'
p1099
S'atmega32u4'
p1100
ssS'name'
p1101
S'Arduino Robot Control'
p1102
sS'upload'
p1103
(dp1104
S'speed'
p1105
S'57600'
p1106
sS'maximum_size'
p1107
S'28672'
p1108
sS'protocol'
p1109
S'avr109'
p1110
sS'disable_flushing'
p1111
S'true'
p1112
ssaa(lp1113
S'robotMotor'
p1114
a(dp1115
S'bootloader'
p1116
(dp1117
S'extended_fuses'
p1118
S'0xcb'
p1119
sS'high_fuses'
p1120
S'0xd8'
p1121
sS'low_fuses'
p1122
S'0xff'
p1123
sS'lock_bits'
p1124
S'0x2F'
p1125
sS'file'
p1126
S'Caterina-Robot-Motor.hex'
p1127
sS'path'
p1128
S'caterina-Arduino_Robot'
p1129
sS'unlock_bits'
p1130
S'0x3F'
p1131
ssS'build'
p1132
(dp1133
S'core'
p1134
S'robot'
p1135
sS'f_cpu'
p1136
S'16000000L'
p1137
sS'vid'
p1138
S'0x2341'
p1139
sS'pid'
p1140
S'0x8039'
p1141
sS'variant'
p1142
S'robot_motor'
p1143
sS'mcu'
p1144
S'atmega32u4'
p1145
ssS'name'
p1146
S'Arduino Robot Motor'
p1147
sS'upload'
p1148
(dp1149
S'speed'
p1150
S'57600'
p1151
sS'maximum_size'
p1152
S'28672'
p1153
sS'protocol'
p1154
S'avr109'
p1155
sS'disable_flushing'
p1156
S'true'
p1157
ssaatp1158
Rp1159
(dp1160
S'default'
p1161
S'uno'
p1162
sbtp1163
a(S'used_libs'
p1164
(lp1165
S'/usr/share/arduino/libraries/VirtualWire'
p1166
aS'/usr/share/arduino/hardware/arduino/cores/arduino'
p1167
atp1168
a(S'make'
p1169
S'/usr/share/arduino/hardware/tools/avr/bin/make'
p1170
tp1171
a(S'build_dir'
p1172
S'.build/nano328'
p1173
tp1174
a(S'cc'
p1175
S'/usr/share/arduino/hardware/tools/avr/bin/avr-gcc'
p1176
tp1177
a(S'cflags'
p1178
g2
(g3
g4
(lp1179
tp1180
Rp1181
tp1182
a(S'cxxflags'
p1183
g2
(g3
g4
(lp1184
S'-fno-exceptions'
p1185
atp1186
Rp1187
tp1188
a(S'arduino_variants_dir'
p1189
S'/usr/share/arduino/hardware/arduino/variants'
p1190
tp1191
a(S'stty'
p1192
S'/bin/stty'
p1193
tp1194
a(S'version.txt'
p1195
S'/usr/share/arduino/lib/version.txt'
p1196
tp1197
a(S'arduino_core_dir'
p1198
g1167
tp1199
a(S'boards.txt'
p1200
S'/usr/share/arduino/hardware/arduino/boards.txt'
p1201
tp1202
a(S'avrdude.conf'
p1203
S'/usr/share/arduino/hardware/tools/avrdude.conf'
p1204
tp1205
a(S'deps'
p1206
g2
(g3
g4
(lp1207
S'.build/nano328/src/dependencies.d'
p1208
aS'.build/nano328/arduino/dependencies.d'
p1209
aS'.build/nano328/VirtualWire/dependencies.d'
p1210
atp1211
Rp1212
tp1213
a.