(lp0
(S'cppflags'
p1
ccopy_reg
_reconstructor
p2
(cino.utils
SpaceList
p3
c__builtin__
list
p4
(lp5
S'-mmcu=atmega328p'
p6
aS'-DF_CPU=16000000L'
p7
aS'-DARDUINO=105'
p8
aS'-I/usr/share/arduino/hardware/arduino/cores/arduino'
p9
aS'-ffunction-sections'
p10
aS'-fdata-sections'
p11
aS'-g'
p12
aS'-Os'
p13
aS'-w'
p14
aS'-I/usr/share/arduino/hardware/arduino/variants/eightanaloginputs'
p15
aS'-I/usr/share/arduino/libraries/VirtualWire'
p16
aS'-I/usr/share/arduino/libraries/VirtualWire/util'
p17
aS'-I/usr/share/arduino/libraries/VirtualWire/doc'
p18
aS'-I/usr/share/arduino/hardware/arduino/cores/arduino'
p19
aS'-I/usr/share/arduino/hardware/arduino/cores/arduino/avr-libc'
p20
atp21
Rp22
tp23
a(S'cxx'
p24
S'/usr/share/arduino/hardware/tools/avr/bin/avr-g++'
p25
tp26
a(S'arduino_libraries_dir'
p27
S'/usr/share/arduino/libraries'
p28
tp29
a(S'avrdude'
p30
S'/usr/share/arduino/hardware/tools/avrdude'
p31
tp32
a(S'ar'
p33
S'/usr/share/arduino/hardware/tools/avr/bin/avr-ar'
p34
tp35
a(S'names'
p36
(dp37
S'cpp'
p38
S'%s.cpp'
p39
sS'obj'
p40
S'%s.o'
p41
sS'deps'
p42
S'%s.d'
p43
sS'lib'
p44
S'lib%s.a'
p45
stp46
a(S'ldflags'
p47
g2
(g3
g4
(lp48
g6
aS'-Wl,-Os'
p49
aS'-Wl,--gc-sections'
p50
atp51
Rp52
tp53
a(S'arduino_lib_version'
p54
g2
(cino.environment
Version
p55
c__builtin__
tuple
p56
(I1
I0
I5
tp57
tp58
Rp59
tp60
a(S'objcopy'
p61
S'/usr/share/arduino/hardware/tools/avr/bin/avr-objcopy'
p62
tp63
a(S'board_models'
p64
cino.environment
BoardModels
p65
((lp66
(lp67
S'uno'
p68
a(dp69
S'bootloader'
p70
(dp71
S'extended_fuses'
p72
S'0x05'
p73
sS'high_fuses'
p74
S'0xde'
p75
sS'low_fuses'
p76
S'0xff'
p77
sS'lock_bits'
p78
S'0x0F'
p79
sS'file'
p80
S'optiboot_atmega328.hex'
p81
sS'path'
p82
S'optiboot'
p83
sS'unlock_bits'
p84
S'0x3F'
p85
ssS'upload'
p86
(dp87
S'speed'
p88
S'115200'
p89
sS'maximum_size'
p90
S'32256'
p91
sS'protocol'
p92
S'arduino'
p93
ssS'name'
p94
S'Arduino Uno'
p95
sS'build'
p96
(dp97
S'core'
p98
S'arduino'
p99
sS'mcu'
p100
S'atmega328p'
p101
sS'f_cpu'
p102
S'16000000L'
p103
sS'variant'
p104
S'standard'
p105
ssaa(lp106
S'atmega328'
p107
a(dp108
S'bootloader'
p109
(dp110
S'extended_fuses'
p111
S'0x05'
p112
sS'high_fuses'
p113
S'0xDA'
p114
sS'low_fuses'
p115
S'0xFF'
p116
sS'lock_bits'
p117
S'0x0F'
p118
sS'file'
p119
S'ATmegaBOOT_168_atmega328.hex'
p120
sS'path'
p121
S'atmega'
p122
sS'unlock_bits'
p123
S'0x3F'
p124
ssS'upload'
p125
(dp126
S'speed'
p127
S'57600'
p128
sS'maximum_size'
p129
S'30720'
p130
sS'protocol'
p131
S'arduino'
p132
ssS'name'
p133
S'Arduino Duemilanove w/ ATmega328'
p134
sS'build'
p135
(dp136
S'core'
p137
S'arduino'
p138
sS'mcu'
p139
S'atmega328p'
p140
sS'f_cpu'
p141
S'16000000L'
p142
sS'variant'
p143
S'standard'
p144
ssaa(lp145
S'diecimila'
p146
a(dp147
S'bootloader'
p148
(dp149
S'extended_fuses'
p150
S'0x00'
p151
sS'high_fuses'
p152
S'0xdd'
p153
sS'low_fuses'
p154
S'0xff'
p155
sS'lock_bits'
p156
S'0x0F'
p157
sS'file'
p158
S'ATmegaBOOT_168_diecimila.hex'
p159
sS'path'
p160
S'atmega'
p161
sS'unlock_bits'
p162
S'0x3F'
p163
ssS'upload'
p164
(dp165
S'speed'
p166
S'19200'
p167
sS'maximum_size'
p168
S'14336'
p169
sS'protocol'
p170
S'arduino'
p171
ssS'name'
p172
S'Arduino Diecimila or Duemilanove w/ ATmega168'
p173
sS'build'
p174
(dp175
S'core'
p176
S'arduino'
p177
sS'mcu'
p178
S'atmega168'
p179
sS'f_cpu'
p180
S'16000000L'
p181
sS'variant'
p182
S'standard'
p183
ssaa(lp184
S'nano328'
p185
a(dp186
S'bootloader'
p187
(dp188
S'extended_fuses'
p189
S'0x05'
p190
sS'high_fuses'
p191
S'0xDA'
p192
sS'low_fuses'
p193
S'0xFF'
p194
sS'lock_bits'
p195
S'0x0F'
p196
sS'file'
p197
S'ATmegaBOOT_168_atmega328.hex'
p198
sS'path'
p199
S'atmega'
p200
sS'unlock_bits'
p201
S'0x3F'
p202
ssS'upload'
p203
(dp204
S'speed'
p205
S'57600'
p206
sS'maximum_size'
p207
S'30720'
p208
sS'protocol'
p209
S'arduino'
p210
ssS'name'
p211
S'Arduino Nano w/ ATmega328'
p212
sS'build'
p213
(dp214
S'core'
p215
S'arduino'
p216
sS'mcu'
p217
S'atmega328p'
p218
sS'f_cpu'
p219
S'16000000L'
p220
sS'variant'
p221
S'eightanaloginputs'
p222
ssaa(lp223
S'nano'
p224
a(dp225
S'bootloader'
p226
(dp227
S'extended_fuses'
p228
S'0x00'
p229
sS'high_fuses'
p230
S'0xdd'
p231
sS'low_fuses'
p232
S'0xff'
p233
sS'lock_bits'
p234
S'0x0F'
p235
sS'file'
p236
S'ATmegaBOOT_168_diecimila.hex'
p237
sS'path'
p238
S'atmega'
p239
sS'unlock_bits'
p240
S'0x3F'
p241
ssS'upload'
p242
(dp243
S'speed'
p244
S'19200'
p245
sS'maximum_size'
p246
S'14336'
p247
sS'protocol'
p248
S'arduino'
p249
ssS'name'
p250
S'Arduino Nano w/ ATmega168'
p251
sS'build'
p252
(dp253
S'core'
p254
S'arduino'
p255
sS'mcu'
p256
S'atmega168'
p257
sS'f_cpu'
p258
S'16000000L'
p259
sS'variant'
p260
S'eightanaloginputs'
p261
ssaa(lp262
S'mega2560'
p263
a(dp264
S'bootloader'
p265
(dp266
S'extended_fuses'
p267
S'0xFD'
p268
sS'high_fuses'
p269
S'0xD8'
p270
sS'low_fuses'
p271
S'0xFF'
p272
sS'lock_bits'
p273
S'0x0F'
p274
sS'file'
p275
S'stk500boot_v2_mega2560.hex'
p276
sS'path'
p277
S'stk500v2'
p278
sS'unlock_bits'
p279
S'0x3F'
p280
ssS'upload'
p281
(dp282
S'speed'
p283
S'115200'
p284
sS'maximum_size'
p285
S'258048'
p286
sS'protocol'
p287
S'wiring'
p288
ssS'name'
p289
S'Arduino Mega 2560 or Mega ADK'
p290
sS'build'
p291
(dp292
S'core'
p293
S'arduino'
p294
sS'mcu'
p295
S'atmega2560'
p296
sS'f_cpu'
p297
S'16000000L'
p298
sS'variant'
p299
S'mega'
p300
ssaa(lp301
S'mega'
p302
a(dp303
S'bootloader'
p304
(dp305
S'extended_fuses'
p306
S'0xF5'
p307
sS'high_fuses'
p308
S'0xDA'
p309
sS'low_fuses'
p310
S'0xFF'
p311
sS'lock_bits'
p312
S'0x0F'
p313
sS'file'
p314
S'ATmegaBOOT_168_atmega1280.hex'
p315
sS'path'
p316
S'atmega'
p317
sS'unlock_bits'
p318
S'0x3F'
p319
ssS'upload'
p320
(dp321
S'speed'
p322
S'57600'
p323
sS'maximum_size'
p324
S'126976'
p325
sS'protocol'
p326
S'arduino'
p327
ssS'name'
p328
S'Arduino Mega (ATmega1280)'
p329
sS'build'
p330
(dp331
S'core'
p332
S'arduino'
p333
sS'mcu'
p334
S'atmega1280'
p335
sS'f_cpu'
p336
S'16000000L'
p337
sS'variant'
p338
S'mega'
p339
ssaa(lp340
S'leonardo'
p341
a(dp342
S'bootloader'
p343
(dp344
S'extended_fuses'
p345
S'0xcb'
p346
sS'high_fuses'
p347
S'0xd8'
p348
sS'low_fuses'
p349
S'0xff'
p350
sS'lock_bits'
p351
S'0x2F'
p352
sS'file'
p353
S'Caterina-Leonardo.hex'
p354
sS'path'
p355
S'caterina'
p356
sS'unlock_bits'
p357
S'0x3F'
p358
ssS'upload'
p359
(dp360
S'speed'
p361
S'57600'
p362
sS'maximum_size'
p363
S'28672'
p364
sS'protocol'
p365
S'avr109'
p366
sS'disable_flushing'
p367
S'true'
p368
ssS'name'
p369
S'Arduino Leonardo'
p370
sS'build'
p371
(dp372
S'core'
p373
S'arduino'
p374
sS'f_cpu'
p375
S'16000000L'
p376
sS'vid'
p377
S'0x2341'
p378
sS'pid'
p379
S'0x8036'
p380
sS'variant'
p381
S'leonardo'
p382
sS'mcu'
p383
S'atmega32u4'
p384
ssaa(lp385
S'esplora'
p386
a(dp387
S'bootloader'
p388
(dp389
S'extended_fuses'
p390
S'0xcb'
p391
sS'high_fuses'
p392
S'0xd8'
p393
sS'low_fuses'
p394
S'0xff'
p395
sS'lock_bits'
p396
S'0x2F'
p397
sS'file'
p398
S'Caterina-Esplora.hex'
p399
sS'path'
p400
S'caterina'
p401
sS'unlock_bits'
p402
S'0x3F'
p403
ssS'upload'
p404
(dp405
S'speed'
p406
S'57600'
p407
sS'maximum_size'
p408
S'28672'
p409
sS'protocol'
p410
S'avr109'
p411
sS'disable_flushing'
p412
S'true'
p413
ssS'name'
p414
S'Arduino Esplora'
p415
sS'build'
p416
(dp417
S'core'
p418
S'arduino'
p419
sS'f_cpu'
p420
S'16000000L'
p421
sS'vid'
p422
S'0x2341'
p423
sS'pid'
p424
S'0x803C'
p425
sS'variant'
p426
S'leonardo'
p427
sS'mcu'
p428
S'atmega32u4'
p429
ssaa(lp430
S'micro'
p431
a(dp432
S'bootloader'
p433
(dp434
S'extended_fuses'
p435
S'0xcb'
p436
sS'high_fuses'
p437
S'0xd8'
p438
sS'low_fuses'
p439
S'0xff'
p440
sS'lock_bits'
p441
S'0x2F'
p442
sS'file'
p443
S'Caterina-Micro.hex'
p444
sS'path'
p445
S'caterina'
p446
sS'unlock_bits'
p447
S'0x3F'
p448
ssS'upload'
p449
(dp450
S'speed'
p451
S'57600'
p452
sS'maximum_size'
p453
S'28672'
p454
sS'protocol'
p455
S'avr109'
p456
sS'disable_flushing'
p457
S'true'
p458
ssS'name'
p459
S'Arduino Micro'
p460
sS'build'
p461
(dp462
S'core'
p463
S'arduino'
p464
sS'f_cpu'
p465
S'16000000L'
p466
sS'vid'
p467
S'0x2341'
p468
sS'pid'
p469
S'0x8037'
p470
sS'variant'
p471
S'micro'
p472
sS'mcu'
p473
S'atmega32u4'
p474
ssaa(lp475
S'mini328'
p476
a(dp477
S'bootloader'
p478
(dp479
S'extended_fuses'
p480
S'0x05'
p481
sS'high_fuses'
p482
S'0xd8'
p483
sS'low_fuses'
p484
S'0xff'
p485
sS'lock_bits'
p486
S'0x0F'
p487
sS'file'
p488
S'optiboot_atmega328-Mini.hex'
p489
sS'path'
p490
S'optiboot'
p491
sS'unlock_bits'
p492
S'0x3F'
p493
ssS'upload'
p494
(dp495
S'speed'
p496
S'115200'
p497
sS'maximum_size'
p498
S'28672'
p499
sS'protocol'
p500
S'arduino'
p501
ssS'name'
p502
S'Arduino Mini w/ ATmega328'
p503
sS'build'
p504
(dp505
S'core'
p506
S'arduino'
p507
sS'mcu'
p508
S'atmega328p'
p509
sS'f_cpu'
p510
S'16000000L'
p511
sS'variant'
p512
S'eightanaloginputs'
p513
ssaa(lp514
S'mini'
p515
a(dp516
S'bootloader'
p517
(dp518
S'extended_fuses'
p519
S'0x00'
p520
sS'high_fuses'
p521
S'0xdd'
p522
sS'low_fuses'
p523
S'0xff'
p524
sS'lock_bits'
p525
S'0x0F'
p526
sS'file'
p527
S'ATmegaBOOT_168_ng.hex'
p528
sS'path'
p529
S'atmega'
p530
sS'unlock_bits'
p531
S'0x3F'
p532
ssS'upload'
p533
(dp534
S'speed'
p535
S'19200'
p536
sS'maximum_size'
p537
S'14336'
p538
sS'protocol'
p539
S'arduino'
p540
ssS'name'
p541
S'Arduino Mini w/ ATmega168'
p542
sS'build'
p543
(dp544
S'core'
p545
S'arduino'
p546
sS'mcu'
p547
S'atmega168'
p548
sS'f_cpu'
p549
S'16000000L'
p550
sS'variant'
p551
S'eightanaloginputs'
p552
ssaa(lp553
S'ethernet'
p554
a(dp555
S'bootloader'
p556
(dp557
S'extended_fuses'
p558
S'0x05'
p559
sS'high_fuses'
p560
S'0xde'
p561
sS'low_fuses'
p562
S'0xff'
p563
sS'lock_bits'
p564
S'0x0F'
p565
sS'file'
p566
S'optiboot_atmega328.hex'
p567
sS'path'
p568
S'optiboot'
p569
sS'unlock_bits'
p570
S'0x3F'
p571
ssS'upload'
p572
(dp573
S'speed'
p574
S'115200'
p575
sS'maximum_size'
p576
S'32256'
p577
sS'protocol'
p578
S'arduino'
p579
ssS'name'
p580
S'Arduino Ethernet'
p581
sS'build'
p582
(dp583
S'f_cpu'
p584
S'16000000L'
p585
sS'mcu'
p586
S'atmega328p'
p587
sS'variant'
p588
S'standard'
p589
sS'core'
p590
S'arduino'
p591
ssaa(lp592
S'fio'
p593
a(dp594
S'bootloader'
p595
(dp596
S'extended_fuses'
p597
S'0x05'
p598
sS'high_fuses'
p599
S'0xDA'
p600
sS'low_fuses'
p601
S'0xFF'
p602
sS'lock_bits'
p603
S'0x0F'
p604
sS'file'
p605
S'ATmegaBOOT_168_atmega328_pro_8MHz.hex'
p606
sS'path'
p607
S'arduino:atmega'
p608
sS'unlock_bits'
p609
S'0x3F'
p610
ssS'upload'
p611
(dp612
S'speed'
p613
S'57600'
p614
sS'maximum_size'
p615
S'30720'
p616
sS'protocol'
p617
S'arduino'
p618
ssS'name'
p619
S'Arduino Fio'
p620
sS'build'
p621
(dp622
S'core'
p623
S'arduino'
p624
sS'mcu'
p625
S'atmega328p'
p626
sS'f_cpu'
p627
S'8000000L'
p628
sS'variant'
p629
S'eightanaloginputs'
p630
ssaa(lp631
S'bt328'
p632
a(dp633
S'bootloader'
p634
(dp635
S'extended_fuses'
p636
S'0x05'
p637
sS'high_fuses'
p638
S'0xd8'
p639
sS'low_fuses'
p640
S'0xff'
p641
sS'lock_bits'
p642
S'0x0F'
p643
sS'file'
p644
S'ATmegaBOOT_168_atmega328_bt.hex'
p645
sS'path'
p646
S'bt'
p647
sS'unlock_bits'
p648
S'0x3F'
p649
ssS'upload'
p650
(dp651
S'speed'
p652
S'19200'
p653
sS'maximum_size'
p654
S'28672'
p655
sS'protocol'
p656
S'arduino'
p657
sS'disable_flushing'
p658
S'true'
p659
ssS'name'
p660
S'Arduino BT w/ ATmega328'
p661
sS'build'
p662
(dp663
S'core'
p664
S'arduino'
p665
sS'mcu'
p666
S'atmega328p'
p667
sS'f_cpu'
p668
S'16000000L'
p669
sS'variant'
p670
S'eightanaloginputs'
p671
ssaa(lp672
S'bt'
p673
a(dp674
S'bootloader'
p675
(dp676
S'extended_fuses'
p677
S'0x00'
p678
sS'high_fuses'
p679
S'0xdd'
p680
sS'low_fuses'
p681
S'0xff'
p682
sS'lock_bits'
p683
S'0x0F'
p684
sS'file'
p685
S'ATmegaBOOT_168.hex'
p686
sS'path'
p687
S'bt'
p688
sS'unlock_bits'
p689
S'0x3F'
p690
ssS'upload'
p691
(dp692
S'speed'
p693
S'19200'
p694
sS'maximum_size'
p695
S'14336'
p696
sS'protocol'
p697
S'arduino'
p698
sS'disable_flushing'
p699
S'true'
p700
ssS'name'
p701
S'Arduino BT w/ ATmega168'
p702
sS'build'
p703
(dp704
S'core'
p705
S'arduino'
p706
sS'mcu'
p707
S'atmega168'
p708
sS'f_cpu'
p709
S'16000000L'
p710
sS'variant'
p711
S'eightanaloginputs'
p712
ssaa(lp713
S'LilyPadUSB'
p714
a(dp715
S'bootloader'
p716
(dp717
S'extended_fuses'
p718
S'0xce'
p719
sS'high_fuses'
p720
S'0xd8'
p721
sS'low_fuses'
p722
S'0xff'
p723
sS'lock_bits'
p724
S'0x2F'
p725
sS'file'
p726
S'Caterina-LilyPadUSB.hex'
p727
sS'path'
p728
S'caterina-LilyPadUSB'
p729
sS'unlock_bits'
p730
S'0x3F'
p731
ssS'upload'
p732
(dp733
S'speed'
p734
S'57600'
p735
sS'maximum_size'
p736
S'28672'
p737
sS'protocol'
p738
S'avr109'
p739
sS'disable_flushing'
p740
S'true'
p741
ssS'name'
p742
S'LilyPad Arduino USB'
p743
sS'build'
p744
(dp745
S'core'
p746
S'arduino'
p747
sS'f_cpu'
p748
S'8000000L'
p749
sS'vid'
p750
S'0x1B4F'
p751
sS'pid'
p752
S'0x9208'
p753
sS'variant'
p754
S'leonardo'
p755
sS'mcu'
p756
S'atmega32u4'
p757
ssaa(lp758
S'lilypad328'
p759
a(dp760
S'bootloader'
p761
(dp762
S'extended_fuses'
p763
S'0x05'
p764
sS'high_fuses'
p765
S'0xDA'
p766
sS'low_fuses'
p767
S'0xFF'
p768
sS'lock_bits'
p769
S'0x0F'
p770
sS'file'
p771
S'ATmegaBOOT_168_atmega328_pro_8MHz.hex'
p772
sS'path'
p773
S'atmega'
p774
sS'unlock_bits'
p775
S'0x3F'
p776
ssS'upload'
p777
(dp778
S'speed'
p779
S'57600'
p780
sS'maximum_size'
p781
S'30720'
p782
sS'protocol'
p783
S'arduino'
p784
ssS'name'
p785
S'LilyPad Arduino w/ ATmega328'
p786
sS'build'
p787
(dp788
S'core'
p789
S'arduino'
p790
sS'mcu'
p791
S'atmega328p'
p792
sS'f_cpu'
p793
S'8000000L'
p794
sS'variant'
p795
S'standard'
p796
ssaa(lp797
S'lilypad'
p798
a(dp799
S'bootloader'
p800
(dp801
S'extended_fuses'
p802
S'0x00'
p803
sS'high_fuses'
p804
S'0xdd'
p805
sS'low_fuses'
p806
S'0xe2'
p807
sS'lock_bits'
p808
S'0x0F'
p809
sS'file'
p810
S'LilyPadBOOT_168.hex'
p811
sS'path'
p812
S'lilypad'
p813
sS'unlock_bits'
p814
S'0x3F'
p815
ssS'upload'
p816
(dp817
S'speed'
p818
S'19200'
p819
sS'maximum_size'
p820
S'14336'
p821
sS'protocol'
p822
S'arduino'
p823
ssS'name'
p824
S'LilyPad Arduino w/ ATmega168'
p825
sS'build'
p826
(dp827
S'core'
p828
S'arduino'
p829
sS'mcu'
p830
S'atmega168'
p831
sS'f_cpu'
p832
S'8000000L'
p833
sS'variant'
p834
S'standard'
p835
ssaa(lp836
S'pro5v328'
p837
a(dp838
S'bootloader'
p839
(dp840
S'extended_fuses'
p841
S'0x05'
p842
sS'high_fuses'
p843
S'0xDA'
p844
sS'low_fuses'
p845
S'0xFF'
p846
sS'lock_bits'
p847
S'0x0F'
p848
sS'file'
p849
S'ATmegaBOOT_168_atmega328.hex'
p850
sS'path'
p851
S'atmega'
p852
sS'unlock_bits'
p853
S'0x3F'
p854
ssS'upload'
p855
(dp856
S'speed'
p857
S'57600'
p858
sS'maximum_size'
p859
S'30720'
p860
sS'protocol'
p861
S'arduino'
p862
ssS'name'
p863
S'Arduino Pro or Pro Mini (5V, 16 MHz) w/ ATmega328'
p864
sS'build'
p865
(dp866
S'core'
p867
S'arduino'
p868
sS'mcu'
p869
S'atmega328p'
p870
sS'f_cpu'
p871
S'16000000L'
p872
sS'variant'
p873
S'standard'
p874
ssaa(lp875
S'pro5v'
p876
a(dp877
S'bootloader'
p878
(dp879
S'extended_fuses'
p880
S'0x00'
p881
sS'high_fuses'
p882
S'0xdd'
p883
sS'low_fuses'
p884
S'0xff'
p885
sS'lock_bits'
p886
S'0x0F'
p887
sS'file'
p888
S'ATmegaBOOT_168_diecimila.hex'
p889
sS'path'
p890
S'atmega'
p891
sS'unlock_bits'
p892
S'0x3F'
p893
ssS'upload'
p894
(dp895
S'speed'
p896
S'19200'
p897
sS'maximum_size'
p898
S'14336'
p899
sS'protocol'
p900
S'arduino'
p901
ssS'name'
p902
S'Arduino Pro or Pro Mini (5V, 16 MHz) w/ ATmega168'
p903
sS'build'
p904
(dp905
S'core'
p906
S'arduino'
p907
sS'mcu'
p908
S'atmega168'
p909
sS'f_cpu'
p910
S'16000000L'
p911
sS'variant'
p912
S'standard'
p913
ssaa(lp914
S'pro328'
p915
a(dp916
S'bootloader'
p917
(dp918
S'extended_fuses'
p919
S'0x05'
p920
sS'high_fuses'
p921
S'0xDA'
p922
sS'low_fuses'
p923
S'0xFF'
p924
sS'lock_bits'
p925
S'0x0F'
p926
sS'file'
p927
S'ATmegaBOOT_168_atmega328_pro_8MHz.hex'
p928
sS'path'
p929
S'atmega'
p930
sS'unlock_bits'
p931
S'0x3F'
p932
ssS'upload'
p933
(dp934
S'speed'
p935
S'57600'
p936
sS'maximum_size'
p937
S'30720'
p938
sS'protocol'
p939
S'arduino'
p940
ssS'name'
p941
S'Arduino Pro or Pro Mini (3.3V, 8 MHz) w/ ATmega328'
p942
sS'build'
p943
(dp944
S'core'
p945
S'arduino'
p946
sS'mcu'
p947
S'atmega328p'
p948
sS'f_cpu'
p949
S'8000000L'
p950
sS'variant'
p951
S'standard'
p952
ssaa(lp953
S'pro'
p954
a(dp955
S'bootloader'
p956
(dp957
S'extended_fuses'
p958
S'0x00'
p959
sS'high_fuses'
p960
S'0xdd'
p961
sS'low_fuses'
p962
S'0xc6'
p963
sS'lock_bits'
p964
S'0x0F'
p965
sS'file'
p966
S'ATmegaBOOT_168_pro_8MHz.hex'
p967
sS'path'
p968
S'atmega'
p969
sS'unlock_bits'
p970
S'0x3F'
p971
ssS'upload'
p972
(dp973
S'speed'
p974
S'19200'
p975
sS'maximum_size'
p976
S'14336'
p977
sS'protocol'
p978
S'arduino'
p979
ssS'name'
p980
S'Arduino Pro or Pro Mini (3.3V, 8 MHz) w/ ATmega168'
p981
sS'build'
p982
(dp983
S'core'
p984
S'arduino'
p985
sS'mcu'
p986
S'atmega168'
p987
sS'f_cpu'
p988
S'8000000L'
p989
sS'variant'
p990
S'standard'
p991
ssaa(lp992
S'atmega168'
p993
a(dp994
S'bootloader'
p995
(dp996
S'extended_fuses'
p997
S'0x00'
p998
sS'high_fuses'
p999
S'0xdd'
p1000
sS'low_fuses'
p1001
S'0xff'
p1002
sS'lock_bits'
p1003
S'0x0F'
p1004
sS'file'
p1005
S'ATmegaBOOT_168_ng.hex'
p1006
sS'path'
p1007
S'atmega'
p1008
sS'unlock_bits'
p1009
S'0x3F'
p1010
ssS'upload'
p1011
(dp1012
S'speed'
p1013
S'19200'
p1014
sS'maximum_size'
p1015
S'14336'
p1016
sS'protocol'
p1017
S'arduino'
p1018
ssS'name'
p1019
S'Arduino NG or older w/ ATmega168'
p1020
sS'build'
p1021
(dp1022
S'core'
p1023
S'arduino'
p1024
sS'mcu'
p1025
S'atmega168'
p1026
sS'f_cpu'
p1027
S'16000000L'
p1028
sS'variant'
p1029
S'standard'
p1030
ssaa(lp1031
S'atmega8'
p1032
a(dp1033
S'bootloader'
p1034
(dp1035
S'high_fuses'
p1036
S'0xca'
p1037
sS'low_fuses'
p1038
S'0xdf'
p1039
sS'lock_bits'
p1040
S'0x0F'
p1041
sS'file'
p1042
S'ATmegaBOOT-prod-firmware-2009-11-07.hex'
p1043
sS'path'
p1044
S'atmega8'
p1045
sS'unlock_bits'
p1046
S'0x3F'
p1047
ssS'upload'
p1048
(dp1049
S'speed'
p1050
S'19200'
p1051
sS'maximum_size'
p1052
S'7168'
p1053
sS'protocol'
p1054
S'arduino'
p1055
ssS'name'
p1056
S'Arduino NG or older w/ ATmega8'
p1057
sS'build'
p1058
(dp1059
S'core'
p1060
S'arduino'
p1061
sS'mcu'
p1062
S'atmega8'
p1063
sS'f_cpu'
p1064
S'16000000L'
p1065
sS'variant'
p1066
S'standard'
p1067
ssaa(lp1068
S'robotControl'
p1069
a(dp1070
S'bootloader'
p1071
(dp1072
S'extended_fuses'
p1073
S'0xcb'
p1074
sS'high_fuses'
p1075
S'0xd8'
p1076
sS'low_fuses'
p1077
S'0xff'
p1078
sS'lock_bits'
p1079
S'0x2F'
p1080
sS'file'
p1081
S'Caterina-Robot-Control.hex'
p1082
sS'path'
p1083
S'caterina-Arduino_Robot'
p1084
sS'unlock_bits'
p1085
S'0x3F'
p1086
ssS'upload'
p1087
(dp1088
S'speed'
p1089
S'57600'
p1090
sS'maximum_size'
p1091
S'28672'
p1092
sS'protocol'
p1093
S'avr109'
p1094
sS'disable_flushing'
p1095
S'true'
p1096
ssS'name'
p1097
S'Arduino Robot Control'
p1098
sS'build'
p1099
(dp1100
S'core'
p1101
S'robot'
p1102
sS'f_cpu'
p1103
S'16000000L'
p1104
sS'vid'
p1105
S'0x2341'
p1106
sS'pid'
p1107
S'0x8038'
p1108
sS'variant'
p1109
S'robot_control'
p1110
sS'mcu'
p1111
S'atmega32u4'
p1112
ssaa(lp1113
S'robotMotor'
p1114
a(dp1115
S'bootloader'
p1116
(dp1117
S'extended_fuses'
p1118
S'0xcb'
p1119
sS'high_fuses'
p1120
S'0xd8'
p1121
sS'low_fuses'
p1122
S'0xff'
p1123
sS'lock_bits'
p1124
S'0x2F'
p1125
sS'file'
p1126
S'Caterina-Robot-Motor.hex'
p1127
sS'path'
p1128
S'caterina-Arduino_Robot'
p1129
sS'unlock_bits'
p1130
S'0x3F'
p1131
ssS'upload'
p1132
(dp1133
S'speed'
p1134
S'57600'
p1135
sS'maximum_size'
p1136
S'28672'
p1137
sS'protocol'
p1138
S'avr109'
p1139
sS'disable_flushing'
p1140
S'true'
p1141
ssS'name'
p1142
S'Arduino Robot Motor'
p1143
sS'build'
p1144
(dp1145
S'core'
p1146
S'robot'
p1147
sS'f_cpu'
p1148
S'16000000L'
p1149
sS'vid'
p1150
S'0x2341'
p1151
sS'pid'
p1152
S'0x8039'
p1153
sS'variant'
p1154
S'robot_motor'
p1155
sS'mcu'
p1156
S'atmega32u4'
p1157
ssaatp1158
Rp1159
(dp1160
S'default'
p1161
S'uno'
p1162
sbtp1163
a(S'used_libs'
p1164
(lp1165
S'/usr/share/arduino/libraries/VirtualWire'
p1166
aS'/usr/share/arduino/hardware/arduino/cores/arduino'
p1167
atp1168
a(S'make'
p1169
S'/usr/share/arduino/hardware/tools/avr/bin/make'
p1170
tp1171
a(S'build_dir'
p1172
S'.build/nano328'
p1173
tp1174
a(S'cc'
p1175
S'/usr/share/arduino/hardware/tools/avr/bin/avr-gcc'
p1176
tp1177
a(S'cflags'
p1178
g2
(g3
g4
(lp1179
tp1180
Rp1181
tp1182
a(S'cxxflags'
p1183
g2
(g3
g4
(lp1184
S'-fno-exceptions'
p1185
atp1186
Rp1187
tp1188
a(S'arduino_variants_dir'
p1189
S'/usr/share/arduino/hardware/arduino/variants'
p1190
tp1191
a(S'stty'
p1192
S'/bin/stty'
p1193
tp1194
a(S'version.txt'
p1195
S'/usr/share/arduino/lib/version.txt'
p1196
tp1197
a(S'arduino_core_dir'
p1198
g1167
tp1199
a(S'boards.txt'
p1200
S'/usr/share/arduino/hardware/arduino/boards.txt'
p1201
tp1202
a(S'avrdude.conf'
p1203
S'/usr/share/arduino/hardware/tools/avrdude.conf'
p1204
tp1205
a(S'deps'
p1206
g2
(g3
g4
(lp1207
S'.build/nano328/src/dependencies.d'
p1208
aS'.build/nano328/arduino/dependencies.d'
p1209
aS'.build/nano328/VirtualWire/dependencies.d'
p1210
atp1211
Rp1212
tp1213
a.