(lp0
(S'cppflags'
p1
ccopy_reg
_reconstructor
p2
(cino.utils
SpaceList
p3
c__builtin__
list
p4
(lp5
S'-mmcu=atmega328p'
p6
aS'-DF_CPU=16000000L'
p7
aS'-DARDUINO=105'
p8
aS'-I/usr/share/arduino/hardware/arduino/cores/arduino'
p9
aS'-ffunction-sections'
p10
aS'-fdata-sections'
p11
aS'-g'
p12
aS'-Os'
p13
aS'-w'
p14
aS'-I/usr/share/arduino/hardware/arduino/variants/eightanaloginputs'
p15
aS'-I/usr/share/arduino/libraries/VirtualWire'
p16
aS'-I/usr/share/arduino/libraries/VirtualWire/util'
p17
aS'-I/usr/share/arduino/libraries/VirtualWire/doc'
p18
aS'-Ilib/VirtualWire'
p19
aS'-I/usr/share/arduino/hardware/arduino/cores/arduino'
p20
aS'-I/usr/share/arduino/hardware/arduino/cores/arduino/avr-libc'
p21
atp22
Rp23
tp24
a(S'version.txt'
p25
S'/usr/share/arduino/lib/version.txt'
p26
tp27
a(S'used_libs'
p28
(lp29
S'/usr/share/arduino/libraries/VirtualWire'
p30
aS'lib/VirtualWire'
p31
aS'/usr/share/arduino/hardware/arduino/cores/arduino'
p32
atp33
a(S'cc'
p34
S'/usr/share/arduino/hardware/tools/avr/bin/avr-gcc'
p35
tp36
a(S'make'
p37
S'/usr/share/arduino/hardware/tools/avr/bin/make'
p38
tp39
a(S'build_dir'
p40
S'.build/nano328'
p41
tp42
a(S'arduino_core_dir'
p43
g32
tp44
a(S'boards.txt'
p45
S'/usr/share/arduino/hardware/arduino/boards.txt'
p46
tp47
a(S'cxxflags'
p48
g2
(g3
g4
(lp49
S'-fno-exceptions'
p50
atp51
Rp52
tp53
a(S'arduino_variants_dir'
p54
S'/usr/share/arduino/hardware/arduino/variants'
p55
tp56
a(S'deps'
p57
g2
(g3
g4
(lp58
S'.build/nano328/src/dependencies.d'
p59
aS'.build/nano328/arduino/dependencies.d'
p60
aS'.build/nano328/VirtualWire/dependencies.d'
p61
aS'.build/nano328/VirtualWire/dependencies.d'
p62
atp63
Rp64
tp65
a(S'ar'
p66
S'/usr/share/arduino/hardware/tools/avr/bin/avr-ar'
p67
tp68
a(S'names'
p69
(dp70
S'cpp'
p71
S'%s.cpp'
p72
sS'obj'
p73
S'%s.o'
p74
sS'deps'
p75
S'%s.d'
p76
sS'lib'
p77
S'lib%s.a'
p78
stp79
a(S'cflags'
p80
g2
(g3
g4
(lp81
tp82
Rp83
tp84
a(S'ldflags'
p85
g2
(g3
g4
(lp86
g6
aS'-Wl,-Os'
p87
aS'-Wl,--gc-sections'
p88
atp89
Rp90
tp91
a(S'arduino_libraries_dir'
p92
S'/usr/share/arduino/libraries'
p93
tp94
a(S'arduino_lib_version'
p95
g2
(cino.environment
Version
p96
c__builtin__
tuple
p97
(I1
I0
I5
tp98
tp99
Rp100
tp101
a(S'objcopy'
p102
S'/usr/share/arduino/hardware/tools/avr/bin/avr-objcopy'
p103
tp104
a(S'board_models'
p105
cino.environment
BoardModels
p106
((lp107
(lp108
S'uno'
p109
a(dp110
S'bootloader'
p111
(dp112
S'extended_fuses'
p113
S'0x05'
p114
sS'high_fuses'
p115
S'0xde'
p116
sS'low_fuses'
p117
S'0xff'
p118
sS'lock_bits'
p119
S'0x0F'
p120
sS'file'
p121
S'optiboot_atmega328.hex'
p122
sS'path'
p123
S'optiboot'
p124
sS'unlock_bits'
p125
S'0x3F'
p126
ssS'build'
p127
(dp128
S'core'
p129
S'arduino'
p130
sS'mcu'
p131
S'atmega328p'
p132
sS'f_cpu'
p133
S'16000000L'
p134
sS'variant'
p135
S'standard'
p136
ssS'name'
p137
S'Arduino Uno'
p138
sS'upload'
p139
(dp140
S'speed'
p141
S'115200'
p142
sS'maximum_size'
p143
S'32256'
p144
sS'protocol'
p145
S'arduino'
p146
ssaa(lp147
S'atmega328'
p148
a(dp149
S'bootloader'
p150
(dp151
S'extended_fuses'
p152
S'0x05'
p153
sS'high_fuses'
p154
S'0xDA'
p155
sS'low_fuses'
p156
S'0xFF'
p157
sS'lock_bits'
p158
S'0x0F'
p159
sS'file'
p160
S'ATmegaBOOT_168_atmega328.hex'
p161
sS'path'
p162
S'atmega'
p163
sS'unlock_bits'
p164
S'0x3F'
p165
ssS'build'
p166
(dp167
S'core'
p168
S'arduino'
p169
sS'mcu'
p170
S'atmega328p'
p171
sS'f_cpu'
p172
S'16000000L'
p173
sS'variant'
p174
S'standard'
p175
ssS'name'
p176
S'Arduino Duemilanove w/ ATmega328'
p177
sS'upload'
p178
(dp179
S'speed'
p180
S'57600'
p181
sS'maximum_size'
p182
S'30720'
p183
sS'protocol'
p184
S'arduino'
p185
ssaa(lp186
S'diecimila'
p187
a(dp188
S'bootloader'
p189
(dp190
S'extended_fuses'
p191
S'0x00'
p192
sS'high_fuses'
p193
S'0xdd'
p194
sS'low_fuses'
p195
S'0xff'
p196
sS'lock_bits'
p197
S'0x0F'
p198
sS'file'
p199
S'ATmegaBOOT_168_diecimila.hex'
p200
sS'path'
p201
S'atmega'
p202
sS'unlock_bits'
p203
S'0x3F'
p204
ssS'build'
p205
(dp206
S'core'
p207
S'arduino'
p208
sS'mcu'
p209
S'atmega168'
p210
sS'f_cpu'
p211
S'16000000L'
p212
sS'variant'
p213
S'standard'
p214
ssS'name'
p215
S'Arduino Diecimila or Duemilanove w/ ATmega168'
p216
sS'upload'
p217
(dp218
S'speed'
p219
S'19200'
p220
sS'maximum_size'
p221
S'14336'
p222
sS'protocol'
p223
S'arduino'
p224
ssaa(lp225
S'nano328'
p226
a(dp227
S'bootloader'
p228
(dp229
S'extended_fuses'
p230
S'0x05'
p231
sS'high_fuses'
p232
S'0xDA'
p233
sS'low_fuses'
p234
S'0xFF'
p235
sS'lock_bits'
p236
S'0x0F'
p237
sS'file'
p238
S'ATmegaBOOT_168_atmega328.hex'
p239
sS'path'
p240
S'atmega'
p241
sS'unlock_bits'
p242
S'0x3F'
p243
ssS'build'
p244
(dp245
S'core'
p246
S'arduino'
p247
sS'mcu'
p248
S'atmega328p'
p249
sS'f_cpu'
p250
S'16000000L'
p251
sS'variant'
p252
S'eightanaloginputs'
p253
ssS'name'
p254
S'Arduino Nano w/ ATmega328'
p255
sS'upload'
p256
(dp257
S'speed'
p258
S'57600'
p259
sS'maximum_size'
p260
S'30720'
p261
sS'protocol'
p262
S'arduino'
p263
ssaa(lp264
S'nano'
p265
a(dp266
S'bootloader'
p267
(dp268
S'extended_fuses'
p269
S'0x00'
p270
sS'high_fuses'
p271
S'0xdd'
p272
sS'low_fuses'
p273
S'0xff'
p274
sS'lock_bits'
p275
S'0x0F'
p276
sS'file'
p277
S'ATmegaBOOT_168_diecimila.hex'
p278
sS'path'
p279
S'atmega'
p280
sS'unlock_bits'
p281
S'0x3F'
p282
ssS'build'
p283
(dp284
S'core'
p285
S'arduino'
p286
sS'mcu'
p287
S'atmega168'
p288
sS'f_cpu'
p289
S'16000000L'
p290
sS'variant'
p291
S'eightanaloginputs'
p292
ssS'name'
p293
S'Arduino Nano w/ ATmega168'
p294
sS'upload'
p295
(dp296
S'speed'
p297
S'19200'
p298
sS'maximum_size'
p299
S'14336'
p300
sS'protocol'
p301
S'arduino'
p302
ssaa(lp303
S'mega2560'
p304
a(dp305
S'bootloader'
p306
(dp307
S'extended_fuses'
p308
S'0xFD'
p309
sS'high_fuses'
p310
S'0xD8'
p311
sS'low_fuses'
p312
S'0xFF'
p313
sS'lock_bits'
p314
S'0x0F'
p315
sS'file'
p316
S'stk500boot_v2_mega2560.hex'
p317
sS'path'
p318
S'stk500v2'
p319
sS'unlock_bits'
p320
S'0x3F'
p321
ssS'build'
p322
(dp323
S'core'
p324
S'arduino'
p325
sS'mcu'
p326
S'atmega2560'
p327
sS'f_cpu'
p328
S'16000000L'
p329
sS'variant'
p330
S'mega'
p331
ssS'name'
p332
S'Arduino Mega 2560 or Mega ADK'
p333
sS'upload'
p334
(dp335
S'speed'
p336
S'115200'
p337
sS'maximum_size'
p338
S'258048'
p339
sS'protocol'
p340
S'wiring'
p341
ssaa(lp342
S'mega'
p343
a(dp344
S'bootloader'
p345
(dp346
S'extended_fuses'
p347
S'0xF5'
p348
sS'high_fuses'
p349
S'0xDA'
p350
sS'low_fuses'
p351
S'0xFF'
p352
sS'lock_bits'
p353
S'0x0F'
p354
sS'file'
p355
S'ATmegaBOOT_168_atmega1280.hex'
p356
sS'path'
p357
S'atmega'
p358
sS'unlock_bits'
p359
S'0x3F'
p360
ssS'build'
p361
(dp362
S'core'
p363
S'arduino'
p364
sS'mcu'
p365
S'atmega1280'
p366
sS'f_cpu'
p367
S'16000000L'
p368
sS'variant'
p369
S'mega'
p370
ssS'name'
p371
S'Arduino Mega (ATmega1280)'
p372
sS'upload'
p373
(dp374
S'speed'
p375
S'57600'
p376
sS'maximum_size'
p377
S'126976'
p378
sS'protocol'
p379
S'arduino'
p380
ssaa(lp381
S'leonardo'
p382
a(dp383
S'bootloader'
p384
(dp385
S'extended_fuses'
p386
S'0xcb'
p387
sS'high_fuses'
p388
S'0xd8'
p389
sS'low_fuses'
p390
S'0xff'
p391
sS'lock_bits'
p392
S'0x2F'
p393
sS'file'
p394
S'Caterina-Leonardo.hex'
p395
sS'path'
p396
S'caterina'
p397
sS'unlock_bits'
p398
S'0x3F'
p399
ssS'build'
p400
(dp401
S'core'
p402
S'arduino'
p403
sS'f_cpu'
p404
S'16000000L'
p405
sS'vid'
p406
S'0x2341'
p407
sS'pid'
p408
S'0x8036'
p409
sS'variant'
p410
S'leonardo'
p411
sS'mcu'
p412
S'atmega32u4'
p413
ssS'name'
p414
S'Arduino Leonardo'
p415
sS'upload'
p416
(dp417
S'speed'
p418
S'57600'
p419
sS'maximum_size'
p420
S'28672'
p421
sS'protocol'
p422
S'avr109'
p423
sS'disable_flushing'
p424
S'true'
p425
ssaa(lp426
S'esplora'
p427
a(dp428
S'bootloader'
p429
(dp430
S'extended_fuses'
p431
S'0xcb'
p432
sS'high_fuses'
p433
S'0xd8'
p434
sS'low_fuses'
p435
S'0xff'
p436
sS'lock_bits'
p437
S'0x2F'
p438
sS'file'
p439
S'Caterina-Esplora.hex'
p440
sS'path'
p441
S'caterina'
p442
sS'unlock_bits'
p443
S'0x3F'
p444
ssS'build'
p445
(dp446
S'core'
p447
S'arduino'
p448
sS'f_cpu'
p449
S'16000000L'
p450
sS'vid'
p451
S'0x2341'
p452
sS'pid'
p453
S'0x803C'
p454
sS'variant'
p455
S'leonardo'
p456
sS'mcu'
p457
S'atmega32u4'
p458
ssS'name'
p459
S'Arduino Esplora'
p460
sS'upload'
p461
(dp462
S'speed'
p463
S'57600'
p464
sS'maximum_size'
p465
S'28672'
p466
sS'protocol'
p467
S'avr109'
p468
sS'disable_flushing'
p469
S'true'
p470
ssaa(lp471
S'micro'
p472
a(dp473
S'bootloader'
p474
(dp475
S'extended_fuses'
p476
S'0xcb'
p477
sS'high_fuses'
p478
S'0xd8'
p479
sS'low_fuses'
p480
S'0xff'
p481
sS'lock_bits'
p482
S'0x2F'
p483
sS'file'
p484
S'Caterina-Micro.hex'
p485
sS'path'
p486
S'caterina'
p487
sS'unlock_bits'
p488
S'0x3F'
p489
ssS'build'
p490
(dp491
S'core'
p492
S'arduino'
p493
sS'f_cpu'
p494
S'16000000L'
p495
sS'vid'
p496
S'0x2341'
p497
sS'pid'
p498
S'0x8037'
p499
sS'variant'
p500
S'micro'
p501
sS'mcu'
p502
S'atmega32u4'
p503
ssS'name'
p504
S'Arduino Micro'
p505
sS'upload'
p506
(dp507
S'speed'
p508
S'57600'
p509
sS'maximum_size'
p510
S'28672'
p511
sS'protocol'
p512
S'avr109'
p513
sS'disable_flushing'
p514
S'true'
p515
ssaa(lp516
S'mini328'
p517
a(dp518
S'bootloader'
p519
(dp520
S'extended_fuses'
p521
S'0x05'
p522
sS'high_fuses'
p523
S'0xd8'
p524
sS'low_fuses'
p525
S'0xff'
p526
sS'lock_bits'
p527
S'0x0F'
p528
sS'file'
p529
S'optiboot_atmega328-Mini.hex'
p530
sS'path'
p531
S'optiboot'
p532
sS'unlock_bits'
p533
S'0x3F'
p534
ssS'build'
p535
(dp536
S'core'
p537
S'arduino'
p538
sS'mcu'
p539
S'atmega328p'
p540
sS'f_cpu'
p541
S'16000000L'
p542
sS'variant'
p543
S'eightanaloginputs'
p544
ssS'name'
p545
S'Arduino Mini w/ ATmega328'
p546
sS'upload'
p547
(dp548
S'speed'
p549
S'115200'
p550
sS'maximum_size'
p551
S'28672'
p552
sS'protocol'
p553
S'arduino'
p554
ssaa(lp555
S'mini'
p556
a(dp557
S'bootloader'
p558
(dp559
S'extended_fuses'
p560
S'0x00'
p561
sS'high_fuses'
p562
S'0xdd'
p563
sS'low_fuses'
p564
S'0xff'
p565
sS'lock_bits'
p566
S'0x0F'
p567
sS'file'
p568
S'ATmegaBOOT_168_ng.hex'
p569
sS'path'
p570
S'atmega'
p571
sS'unlock_bits'
p572
S'0x3F'
p573
ssS'build'
p574
(dp575
S'core'
p576
S'arduino'
p577
sS'mcu'
p578
S'atmega168'
p579
sS'f_cpu'
p580
S'16000000L'
p581
sS'variant'
p582
S'eightanaloginputs'
p583
ssS'name'
p584
S'Arduino Mini w/ ATmega168'
p585
sS'upload'
p586
(dp587
S'speed'
p588
S'19200'
p589
sS'maximum_size'
p590
S'14336'
p591
sS'protocol'
p592
S'arduino'
p593
ssaa(lp594
S'ethernet'
p595
a(dp596
S'bootloader'
p597
(dp598
S'extended_fuses'
p599
S'0x05'
p600
sS'high_fuses'
p601
S'0xde'
p602
sS'low_fuses'
p603
S'0xff'
p604
sS'lock_bits'
p605
S'0x0F'
p606
sS'file'
p607
S'optiboot_atmega328.hex'
p608
sS'path'
p609
S'optiboot'
p610
sS'unlock_bits'
p611
S'0x3F'
p612
ssS'build'
p613
(dp614
S'f_cpu'
p615
S'16000000L'
p616
sS'mcu'
p617
S'atmega328p'
p618
sS'variant'
p619
S'standard'
p620
sS'core'
p621
S'arduino'
p622
ssS'name'
p623
S'Arduino Ethernet'
p624
sS'upload'
p625
(dp626
S'speed'
p627
S'115200'
p628
sS'maximum_size'
p629
S'32256'
p630
sS'protocol'
p631
S'arduino'
p632
ssaa(lp633
S'fio'
p634
a(dp635
S'bootloader'
p636
(dp637
S'extended_fuses'
p638
S'0x05'
p639
sS'high_fuses'
p640
S'0xDA'
p641
sS'low_fuses'
p642
S'0xFF'
p643
sS'lock_bits'
p644
S'0x0F'
p645
sS'file'
p646
S'ATmegaBOOT_168_atmega328_pro_8MHz.hex'
p647
sS'path'
p648
S'arduino:atmega'
p649
sS'unlock_bits'
p650
S'0x3F'
p651
ssS'build'
p652
(dp653
S'core'
p654
S'arduino'
p655
sS'mcu'
p656
S'atmega328p'
p657
sS'f_cpu'
p658
S'8000000L'
p659
sS'variant'
p660
S'eightanaloginputs'
p661
ssS'name'
p662
S'Arduino Fio'
p663
sS'upload'
p664
(dp665
S'speed'
p666
S'57600'
p667
sS'maximum_size'
p668
S'30720'
p669
sS'protocol'
p670
S'arduino'
p671
ssaa(lp672
S'bt328'
p673
a(dp674
S'bootloader'
p675
(dp676
S'extended_fuses'
p677
S'0x05'
p678
sS'high_fuses'
p679
S'0xd8'
p680
sS'low_fuses'
p681
S'0xff'
p682
sS'lock_bits'
p683
S'0x0F'
p684
sS'file'
p685
S'ATmegaBOOT_168_atmega328_bt.hex'
p686
sS'path'
p687
S'bt'
p688
sS'unlock_bits'
p689
S'0x3F'
p690
ssS'build'
p691
(dp692
S'core'
p693
S'arduino'
p694
sS'mcu'
p695
S'atmega328p'
p696
sS'f_cpu'
p697
S'16000000L'
p698
sS'variant'
p699
S'eightanaloginputs'
p700
ssS'name'
p701
S'Arduino BT w/ ATmega328'
p702
sS'upload'
p703
(dp704
S'speed'
p705
S'19200'
p706
sS'maximum_size'
p707
S'28672'
p708
sS'protocol'
p709
S'arduino'
p710
sS'disable_flushing'
p711
S'true'
p712
ssaa(lp713
S'bt'
p714
a(dp715
S'bootloader'
p716
(dp717
S'extended_fuses'
p718
S'0x00'
p719
sS'high_fuses'
p720
S'0xdd'
p721
sS'low_fuses'
p722
S'0xff'
p723
sS'lock_bits'
p724
S'0x0F'
p725
sS'file'
p726
S'ATmegaBOOT_168.hex'
p727
sS'path'
p728
S'bt'
p729
sS'unlock_bits'
p730
S'0x3F'
p731
ssS'build'
p732
(dp733
S'core'
p734
S'arduino'
p735
sS'mcu'
p736
S'atmega168'
p737
sS'f_cpu'
p738
S'16000000L'
p739
sS'variant'
p740
S'eightanaloginputs'
p741
ssS'name'
p742
S'Arduino BT w/ ATmega168'
p743
sS'upload'
p744
(dp745
S'speed'
p746
S'19200'
p747
sS'maximum_size'
p748
S'14336'
p749
sS'protocol'
p750
S'arduino'
p751
sS'disable_flushing'
p752
S'true'
p753
ssaa(lp754
S'LilyPadUSB'
p755
a(dp756
S'bootloader'
p757
(dp758
S'extended_fuses'
p759
S'0xce'
p760
sS'high_fuses'
p761
S'0xd8'
p762
sS'low_fuses'
p763
S'0xff'
p764
sS'lock_bits'
p765
S'0x2F'
p766
sS'file'
p767
S'Caterina-LilyPadUSB.hex'
p768
sS'path'
p769
S'caterina-LilyPadUSB'
p770
sS'unlock_bits'
p771
S'0x3F'
p772
ssS'build'
p773
(dp774
S'core'
p775
S'arduino'
p776
sS'f_cpu'
p777
S'8000000L'
p778
sS'vid'
p779
S'0x1B4F'
p780
sS'pid'
p781
S'0x9208'
p782
sS'variant'
p783
S'leonardo'
p784
sS'mcu'
p785
S'atmega32u4'
p786
ssS'name'
p787
S'LilyPad Arduino USB'
p788
sS'upload'
p789
(dp790
S'speed'
p791
S'57600'
p792
sS'maximum_size'
p793
S'28672'
p794
sS'protocol'
p795
S'avr109'
p796
sS'disable_flushing'
p797
S'true'
p798
ssaa(lp799
S'lilypad328'
p800
a(dp801
S'bootloader'
p802
(dp803
S'extended_fuses'
p804
S'0x05'
p805
sS'high_fuses'
p806
S'0xDA'
p807
sS'low_fuses'
p808
S'0xFF'
p809
sS'lock_bits'
p810
S'0x0F'
p811
sS'file'
p812
S'ATmegaBOOT_168_atmega328_pro_8MHz.hex'
p813
sS'path'
p814
S'atmega'
p815
sS'unlock_bits'
p816
S'0x3F'
p817
ssS'build'
p818
(dp819
S'core'
p820
S'arduino'
p821
sS'mcu'
p822
S'atmega328p'
p823
sS'f_cpu'
p824
S'8000000L'
p825
sS'variant'
p826
S'standard'
p827
ssS'name'
p828
S'LilyPad Arduino w/ ATmega328'
p829
sS'upload'
p830
(dp831
S'speed'
p832
S'57600'
p833
sS'maximum_size'
p834
S'30720'
p835
sS'protocol'
p836
S'arduino'
p837
ssaa(lp838
S'lilypad'
p839
a(dp840
S'bootloader'
p841
(dp842
S'extended_fuses'
p843
S'0x00'
p844
sS'high_fuses'
p845
S'0xdd'
p846
sS'low_fuses'
p847
S'0xe2'
p848
sS'lock_bits'
p849
S'0x0F'
p850
sS'file'
p851
S'LilyPadBOOT_168.hex'
p852
sS'path'
p853
S'lilypad'
p854
sS'unlock_bits'
p855
S'0x3F'
p856
ssS'build'
p857
(dp858
S'core'
p859
S'arduino'
p860
sS'mcu'
p861
S'atmega168'
p862
sS'f_cpu'
p863
S'8000000L'
p864
sS'variant'
p865
S'standard'
p866
ssS'name'
p867
S'LilyPad Arduino w/ ATmega168'
p868
sS'upload'
p869
(dp870
S'speed'
p871
S'19200'
p872
sS'maximum_size'
p873
S'14336'
p874
sS'protocol'
p875
S'arduino'
p876
ssaa(lp877
S'pro5v328'
p878
a(dp879
S'bootloader'
p880
(dp881
S'extended_fuses'
p882
S'0x05'
p883
sS'high_fuses'
p884
S'0xDA'
p885
sS'low_fuses'
p886
S'0xFF'
p887
sS'lock_bits'
p888
S'0x0F'
p889
sS'file'
p890
S'ATmegaBOOT_168_atmega328.hex'
p891
sS'path'
p892
S'atmega'
p893
sS'unlock_bits'
p894
S'0x3F'
p895
ssS'build'
p896
(dp897
S'core'
p898
S'arduino'
p899
sS'mcu'
p900
S'atmega328p'
p901
sS'f_cpu'
p902
S'16000000L'
p903
sS'variant'
p904
S'standard'
p905
ssS'name'
p906
S'Arduino Pro or Pro Mini (5V, 16 MHz) w/ ATmega328'
p907
sS'upload'
p908
(dp909
S'speed'
p910
S'57600'
p911
sS'maximum_size'
p912
S'30720'
p913
sS'protocol'
p914
S'arduino'
p915
ssaa(lp916
S'pro5v'
p917
a(dp918
S'bootloader'
p919
(dp920
S'extended_fuses'
p921
S'0x00'
p922
sS'high_fuses'
p923
S'0xdd'
p924
sS'low_fuses'
p925
S'0xff'
p926
sS'lock_bits'
p927
S'0x0F'
p928
sS'file'
p929
S'ATmegaBOOT_168_diecimila.hex'
p930
sS'path'
p931
S'atmega'
p932
sS'unlock_bits'
p933
S'0x3F'
p934
ssS'build'
p935
(dp936
S'core'
p937
S'arduino'
p938
sS'mcu'
p939
S'atmega168'
p940
sS'f_cpu'
p941
S'16000000L'
p942
sS'variant'
p943
S'standard'
p944
ssS'name'
p945
S'Arduino Pro or Pro Mini (5V, 16 MHz) w/ ATmega168'
p946
sS'upload'
p947
(dp948
S'speed'
p949
S'19200'
p950
sS'maximum_size'
p951
S'14336'
p952
sS'protocol'
p953
S'arduino'
p954
ssaa(lp955
S'pro328'
p956
a(dp957
S'bootloader'
p958
(dp959
S'extended_fuses'
p960
S'0x05'
p961
sS'high_fuses'
p962
S'0xDA'
p963
sS'low_fuses'
p964
S'0xFF'
p965
sS'lock_bits'
p966
S'0x0F'
p967
sS'file'
p968
S'ATmegaBOOT_168_atmega328_pro_8MHz.hex'
p969
sS'path'
p970
S'atmega'
p971
sS'unlock_bits'
p972
S'0x3F'
p973
ssS'build'
p974
(dp975
S'core'
p976
S'arduino'
p977
sS'mcu'
p978
S'atmega328p'
p979
sS'f_cpu'
p980
S'8000000L'
p981
sS'variant'
p982
S'standard'
p983
ssS'name'
p984
S'Arduino Pro or Pro Mini (3.3V, 8 MHz) w/ ATmega328'
p985
sS'upload'
p986
(dp987
S'speed'
p988
S'57600'
p989
sS'maximum_size'
p990
S'30720'
p991
sS'protocol'
p992
S'arduino'
p993
ssaa(lp994
S'pro'
p995
a(dp996
S'bootloader'
p997
(dp998
S'extended_fuses'
p999
S'0x00'
p1000
sS'high_fuses'
p1001
S'0xdd'
p1002
sS'low_fuses'
p1003
S'0xc6'
p1004
sS'lock_bits'
p1005
S'0x0F'
p1006
sS'file'
p1007
S'ATmegaBOOT_168_pro_8MHz.hex'
p1008
sS'path'
p1009
S'atmega'
p1010
sS'unlock_bits'
p1011
S'0x3F'
p1012
ssS'build'
p1013
(dp1014
S'core'
p1015
S'arduino'
p1016
sS'mcu'
p1017
S'atmega168'
p1018
sS'f_cpu'
p1019
S'8000000L'
p1020
sS'variant'
p1021
S'standard'
p1022
ssS'name'
p1023
S'Arduino Pro or Pro Mini (3.3V, 8 MHz) w/ ATmega168'
p1024
sS'upload'
p1025
(dp1026
S'speed'
p1027
S'19200'
p1028
sS'maximum_size'
p1029
S'14336'
p1030
sS'protocol'
p1031
S'arduino'
p1032
ssaa(lp1033
S'atmega168'
p1034
a(dp1035
S'bootloader'
p1036
(dp1037
S'extended_fuses'
p1038
S'0x00'
p1039
sS'high_fuses'
p1040
S'0xdd'
p1041
sS'low_fuses'
p1042
S'0xff'
p1043
sS'lock_bits'
p1044
S'0x0F'
p1045
sS'file'
p1046
S'ATmegaBOOT_168_ng.hex'
p1047
sS'path'
p1048
S'atmega'
p1049
sS'unlock_bits'
p1050
S'0x3F'
p1051
ssS'build'
p1052
(dp1053
S'core'
p1054
S'arduino'
p1055
sS'mcu'
p1056
S'atmega168'
p1057
sS'f_cpu'
p1058
S'16000000L'
p1059
sS'variant'
p1060
S'standard'
p1061
ssS'name'
p1062
S'Arduino NG or older w/ ATmega168'
p1063
sS'upload'
p1064
(dp1065
S'speed'
p1066
S'19200'
p1067
sS'maximum_size'
p1068
S'14336'
p1069
sS'protocol'
p1070
S'arduino'
p1071
ssaa(lp1072
S'atmega8'
p1073
a(dp1074
S'bootloader'
p1075
(dp1076
S'high_fuses'
p1077
S'0xca'
p1078
sS'low_fuses'
p1079
S'0xdf'
p1080
sS'lock_bits'
p1081
S'0x0F'
p1082
sS'file'
p1083
S'ATmegaBOOT-prod-firmware-2009-11-07.hex'
p1084
sS'path'
p1085
S'atmega8'
p1086
sS'unlock_bits'
p1087
S'0x3F'
p1088
ssS'build'
p1089
(dp1090
S'core'
p1091
S'arduino'
p1092
sS'mcu'
p1093
S'atmega8'
p1094
sS'f_cpu'
p1095
S'16000000L'
p1096
sS'variant'
p1097
S'standard'
p1098
ssS'name'
p1099
S'Arduino NG or older w/ ATmega8'
p1100
sS'upload'
p1101
(dp1102
S'speed'
p1103
S'19200'
p1104
sS'maximum_size'
p1105
S'7168'
p1106
sS'protocol'
p1107
S'arduino'
p1108
ssaa(lp1109
S'robotControl'
p1110
a(dp1111
S'bootloader'
p1112
(dp1113
S'extended_fuses'
p1114
S'0xcb'
p1115
sS'high_fuses'
p1116
S'0xd8'
p1117
sS'low_fuses'
p1118
S'0xff'
p1119
sS'lock_bits'
p1120
S'0x2F'
p1121
sS'file'
p1122
S'Caterina-Robot-Control.hex'
p1123
sS'path'
p1124
S'caterina-Arduino_Robot'
p1125
sS'unlock_bits'
p1126
S'0x3F'
p1127
ssS'build'
p1128
(dp1129
S'core'
p1130
S'robot'
p1131
sS'f_cpu'
p1132
S'16000000L'
p1133
sS'vid'
p1134
S'0x2341'
p1135
sS'pid'
p1136
S'0x8038'
p1137
sS'variant'
p1138
S'robot_control'
p1139
sS'mcu'
p1140
S'atmega32u4'
p1141
ssS'name'
p1142
S'Arduino Robot Control'
p1143
sS'upload'
p1144
(dp1145
S'speed'
p1146
S'57600'
p1147
sS'maximum_size'
p1148
S'28672'
p1149
sS'protocol'
p1150
S'avr109'
p1151
sS'disable_flushing'
p1152
S'true'
p1153
ssaa(lp1154
S'robotMotor'
p1155
a(dp1156
S'bootloader'
p1157
(dp1158
S'extended_fuses'
p1159
S'0xcb'
p1160
sS'high_fuses'
p1161
S'0xd8'
p1162
sS'low_fuses'
p1163
S'0xff'
p1164
sS'lock_bits'
p1165
S'0x2F'
p1166
sS'file'
p1167
S'Caterina-Robot-Motor.hex'
p1168
sS'path'
p1169
S'caterina-Arduino_Robot'
p1170
sS'unlock_bits'
p1171
S'0x3F'
p1172
ssS'build'
p1173
(dp1174
S'core'
p1175
S'robot'
p1176
sS'f_cpu'
p1177
S'16000000L'
p1178
sS'vid'
p1179
S'0x2341'
p1180
sS'pid'
p1181
S'0x8039'
p1182
sS'variant'
p1183
S'robot_motor'
p1184
sS'mcu'
p1185
S'atmega32u4'
p1186
ssS'name'
p1187
S'Arduino Robot Motor'
p1188
sS'upload'
p1189
(dp1190
S'speed'
p1191
S'57600'
p1192
sS'maximum_size'
p1193
S'28672'
p1194
sS'protocol'
p1195
S'avr109'
p1196
sS'disable_flushing'
p1197
S'true'
p1198
ssaatp1199
Rp1200
(dp1201
S'default'
p1202
S'uno'
p1203
sbtp1204
a(S'cxx'
p1205
S'/usr/share/arduino/hardware/tools/avr/bin/avr-g++'
p1206
tp1207
a.