(lp0
(S'cppflags'
p1
ccopy_reg
_reconstructor
p2
(cino.utils
SpaceList
p3
c__builtin__
list
p4
(lp5
S'-mmcu=atmega32u4'
p6
aS'-DF_CPU=16000000L'
p7
aS'-DARDUINO=105'
p8
aS'-I/usr/share/arduino/hardware/arduino/cores/arduino'
p9
aS'-ffunction-sections'
p10
aS'-fdata-sections'
p11
aS'-g'
p12
aS'-Os'
p13
aS'-w'
p14
aS'-DUSB_VID=0x2341'
p15
aS'-DUSB_PID=0x8036'
p16
aS'-I/usr/share/arduino/hardware/arduino/variants/leonardo'
p17
aS'-Ilib/Enerlib'
p18
aS'-I/usr/share/arduino/libraries/VirtualWire'
p19
aS'-I/usr/share/arduino/libraries/VirtualWire/util'
p20
aS'-I/usr/share/arduino/libraries/VirtualWire/doc'
p21
aS'-Ilib/VirtualWire'
p22
aS'-I/usr/share/arduino/hardware/arduino/cores/arduino'
p23
aS'-I/usr/share/arduino/hardware/arduino/cores/arduino/avr-libc'
p24
atp25
Rp26
tp27
a(S'arduino_variants_dir'
p28
S'/usr/share/arduino/hardware/arduino/variants'
p29
tp30
a(S'version.txt'
p31
S'/usr/share/arduino/lib/version.txt'
p32
tp33
a(S'used_libs'
p34
(lp35
S'lib/Enerlib'
p36
aS'/usr/share/arduino/libraries/VirtualWire'
p37
aS'lib/VirtualWire'
p38
aS'/usr/share/arduino/hardware/arduino/cores/arduino'
p39
atp40
a(S'cxx'
p41
S'/usr/share/arduino/hardware/tools/avr/bin/avr-g++'
p42
tp43
a(S'make'
p44
S'/usr/share/arduino/hardware/tools/avr/bin/make'
p45
tp46
a(S'build_dir'
p47
S'.build/leonardo'
p48
tp49
a(S'arduino_core_dir'
p50
g39
tp51
a(S'boards.txt'
p52
S'/usr/share/arduino/hardware/arduino/boards.txt'
p53
tp54
a(S'cxxflags'
p55
g2
(g3
g4
(lp56
S'-fno-exceptions'
p57
atp58
Rp59
tp60
a(S'cc'
p61
S'/usr/share/arduino/hardware/tools/avr/bin/avr-gcc'
p62
tp63
a(S'deps'
p64
g2
(g3
g4
(lp65
S'.build/leonardo/src/dependencies.d'
p66
aS'.build/leonardo/arduino/dependencies.d'
p67
aS'.build/leonardo/VirtualWire/dependencies.d'
p68
aS'.build/leonardo/Enerlib/dependencies.d'
p69
aS'.build/leonardo/VirtualWire/dependencies.d'
p70
atp71
Rp72
tp73
a(S'ar'
p74
S'/usr/share/arduino/hardware/tools/avr/bin/avr-ar'
p75
tp76
a(S'names'
p77
(dp78
S'cpp'
p79
S'%s.cpp'
p80
sS'obj'
p81
S'%s.o'
p82
sS'deps'
p83
S'%s.d'
p84
sS'lib'
p85
S'lib%s.a'
p86
stp87
a(S'cflags'
p88
g2
(g3
g4
(lp89
tp90
Rp91
tp92
a(S'arduino_libraries_dir'
p93
S'/usr/share/arduino/libraries'
p94
tp95
a(S'arduino_lib_version'
p96
g2
(cino.environment
Version
p97
c__builtin__
tuple
p98
(I1
I0
I5
tp99
tp100
Rp101
tp102
a(S'objcopy'
p103
S'/usr/share/arduino/hardware/tools/avr/bin/avr-objcopy'
p104
tp105
a(S'board_models'
p106
cino.environment
BoardModels
p107
((lp108
(lp109
S'uno'
p110
a(dp111
S'bootloader'
p112
(dp113
S'extended_fuses'
p114
S'0x05'
p115
sS'high_fuses'
p116
S'0xde'
p117
sS'low_fuses'
p118
S'0xff'
p119
sS'lock_bits'
p120
S'0x0F'
p121
sS'file'
p122
S'optiboot_atmega328.hex'
p123
sS'path'
p124
S'optiboot'
p125
sS'unlock_bits'
p126
S'0x3F'
p127
ssS'build'
p128
(dp129
S'core'
p130
S'arduino'
p131
sS'mcu'
p132
S'atmega328p'
p133
sS'f_cpu'
p134
S'16000000L'
p135
sS'variant'
p136
S'standard'
p137
ssS'name'
p138
S'Arduino Uno'
p139
sS'upload'
p140
(dp141
S'speed'
p142
S'115200'
p143
sS'maximum_size'
p144
S'32256'
p145
sS'protocol'
p146
S'arduino'
p147
ssaa(lp148
S'atmega328'
p149
a(dp150
S'bootloader'
p151
(dp152
S'extended_fuses'
p153
S'0x05'
p154
sS'high_fuses'
p155
S'0xDA'
p156
sS'low_fuses'
p157
S'0xFF'
p158
sS'lock_bits'
p159
S'0x0F'
p160
sS'file'
p161
S'ATmegaBOOT_168_atmega328.hex'
p162
sS'path'
p163
S'atmega'
p164
sS'unlock_bits'
p165
S'0x3F'
p166
ssS'build'
p167
(dp168
S'core'
p169
S'arduino'
p170
sS'mcu'
p171
S'atmega328p'
p172
sS'f_cpu'
p173
S'16000000L'
p174
sS'variant'
p175
S'standard'
p176
ssS'name'
p177
S'Arduino Duemilanove w/ ATmega328'
p178
sS'upload'
p179
(dp180
S'speed'
p181
S'57600'
p182
sS'maximum_size'
p183
S'30720'
p184
sS'protocol'
p185
S'arduino'
p186
ssaa(lp187
S'diecimila'
p188
a(dp189
S'bootloader'
p190
(dp191
S'extended_fuses'
p192
S'0x00'
p193
sS'high_fuses'
p194
S'0xdd'
p195
sS'low_fuses'
p196
S'0xff'
p197
sS'lock_bits'
p198
S'0x0F'
p199
sS'file'
p200
S'ATmegaBOOT_168_diecimila.hex'
p201
sS'path'
p202
S'atmega'
p203
sS'unlock_bits'
p204
S'0x3F'
p205
ssS'build'
p206
(dp207
S'core'
p208
S'arduino'
p209
sS'mcu'
p210
S'atmega168'
p211
sS'f_cpu'
p212
S'16000000L'
p213
sS'variant'
p214
S'standard'
p215
ssS'name'
p216
S'Arduino Diecimila or Duemilanove w/ ATmega168'
p217
sS'upload'
p218
(dp219
S'speed'
p220
S'19200'
p221
sS'maximum_size'
p222
S'14336'
p223
sS'protocol'
p224
S'arduino'
p225
ssaa(lp226
S'nano328'
p227
a(dp228
S'bootloader'
p229
(dp230
S'extended_fuses'
p231
S'0x05'
p232
sS'high_fuses'
p233
S'0xDA'
p234
sS'low_fuses'
p235
S'0xFF'
p236
sS'lock_bits'
p237
S'0x0F'
p238
sS'file'
p239
S'ATmegaBOOT_168_atmega328.hex'
p240
sS'path'
p241
S'atmega'
p242
sS'unlock_bits'
p243
S'0x3F'
p244
ssS'build'
p245
(dp246
S'core'
p247
S'arduino'
p248
sS'mcu'
p249
S'atmega328p'
p250
sS'f_cpu'
p251
S'16000000L'
p252
sS'variant'
p253
S'eightanaloginputs'
p254
ssS'name'
p255
S'Arduino Nano w/ ATmega328'
p256
sS'upload'
p257
(dp258
S'speed'
p259
S'57600'
p260
sS'maximum_size'
p261
S'30720'
p262
sS'protocol'
p263
S'arduino'
p264
ssaa(lp265
S'nano'
p266
a(dp267
S'bootloader'
p268
(dp269
S'extended_fuses'
p270
S'0x00'
p271
sS'high_fuses'
p272
S'0xdd'
p273
sS'low_fuses'
p274
S'0xff'
p275
sS'lock_bits'
p276
S'0x0F'
p277
sS'file'
p278
S'ATmegaBOOT_168_diecimila.hex'
p279
sS'path'
p280
S'atmega'
p281
sS'unlock_bits'
p282
S'0x3F'
p283
ssS'build'
p284
(dp285
S'core'
p286
S'arduino'
p287
sS'mcu'
p288
S'atmega168'
p289
sS'f_cpu'
p290
S'16000000L'
p291
sS'variant'
p292
S'eightanaloginputs'
p293
ssS'name'
p294
S'Arduino Nano w/ ATmega168'
p295
sS'upload'
p296
(dp297
S'speed'
p298
S'19200'
p299
sS'maximum_size'
p300
S'14336'
p301
sS'protocol'
p302
S'arduino'
p303
ssaa(lp304
S'mega2560'
p305
a(dp306
S'bootloader'
p307
(dp308
S'extended_fuses'
p309
S'0xFD'
p310
sS'high_fuses'
p311
S'0xD8'
p312
sS'low_fuses'
p313
S'0xFF'
p314
sS'lock_bits'
p315
S'0x0F'
p316
sS'file'
p317
S'stk500boot_v2_mega2560.hex'
p318
sS'path'
p319
S'stk500v2'
p320
sS'unlock_bits'
p321
S'0x3F'
p322
ssS'build'
p323
(dp324
S'core'
p325
S'arduino'
p326
sS'mcu'
p327
S'atmega2560'
p328
sS'f_cpu'
p329
S'16000000L'
p330
sS'variant'
p331
S'mega'
p332
ssS'name'
p333
S'Arduino Mega 2560 or Mega ADK'
p334
sS'upload'
p335
(dp336
S'speed'
p337
S'115200'
p338
sS'maximum_size'
p339
S'258048'
p340
sS'protocol'
p341
S'wiring'
p342
ssaa(lp343
S'mega'
p344
a(dp345
S'bootloader'
p346
(dp347
S'extended_fuses'
p348
S'0xF5'
p349
sS'high_fuses'
p350
S'0xDA'
p351
sS'low_fuses'
p352
S'0xFF'
p353
sS'lock_bits'
p354
S'0x0F'
p355
sS'file'
p356
S'ATmegaBOOT_168_atmega1280.hex'
p357
sS'path'
p358
S'atmega'
p359
sS'unlock_bits'
p360
S'0x3F'
p361
ssS'build'
p362
(dp363
S'core'
p364
S'arduino'
p365
sS'mcu'
p366
S'atmega1280'
p367
sS'f_cpu'
p368
S'16000000L'
p369
sS'variant'
p370
S'mega'
p371
ssS'name'
p372
S'Arduino Mega (ATmega1280)'
p373
sS'upload'
p374
(dp375
S'speed'
p376
S'57600'
p377
sS'maximum_size'
p378
S'126976'
p379
sS'protocol'
p380
S'arduino'
p381
ssaa(lp382
S'leonardo'
p383
a(dp384
S'bootloader'
p385
(dp386
S'extended_fuses'
p387
S'0xcb'
p388
sS'high_fuses'
p389
S'0xd8'
p390
sS'low_fuses'
p391
S'0xff'
p392
sS'lock_bits'
p393
S'0x2F'
p394
sS'file'
p395
S'Caterina-Leonardo.hex'
p396
sS'path'
p397
S'caterina'
p398
sS'unlock_bits'
p399
S'0x3F'
p400
ssS'build'
p401
(dp402
S'core'
p403
S'arduino'
p404
sS'f_cpu'
p405
S'16000000L'
p406
sS'vid'
p407
S'0x2341'
p408
sS'pid'
p409
S'0x8036'
p410
sS'variant'
p411
S'leonardo'
p412
sS'mcu'
p413
S'atmega32u4'
p414
ssS'name'
p415
S'Arduino Leonardo'
p416
sS'upload'
p417
(dp418
S'speed'
p419
S'57600'
p420
sS'maximum_size'
p421
S'28672'
p422
sS'protocol'
p423
S'avr109'
p424
sS'disable_flushing'
p425
S'true'
p426
ssaa(lp427
S'esplora'
p428
a(dp429
S'bootloader'
p430
(dp431
S'extended_fuses'
p432
S'0xcb'
p433
sS'high_fuses'
p434
S'0xd8'
p435
sS'low_fuses'
p436
S'0xff'
p437
sS'lock_bits'
p438
S'0x2F'
p439
sS'file'
p440
S'Caterina-Esplora.hex'
p441
sS'path'
p442
S'caterina'
p443
sS'unlock_bits'
p444
S'0x3F'
p445
ssS'build'
p446
(dp447
S'core'
p448
S'arduino'
p449
sS'f_cpu'
p450
S'16000000L'
p451
sS'vid'
p452
S'0x2341'
p453
sS'pid'
p454
S'0x803C'
p455
sS'variant'
p456
S'leonardo'
p457
sS'mcu'
p458
S'atmega32u4'
p459
ssS'name'
p460
S'Arduino Esplora'
p461
sS'upload'
p462
(dp463
S'speed'
p464
S'57600'
p465
sS'maximum_size'
p466
S'28672'
p467
sS'protocol'
p468
S'avr109'
p469
sS'disable_flushing'
p470
S'true'
p471
ssaa(lp472
S'micro'
p473
a(dp474
S'bootloader'
p475
(dp476
S'extended_fuses'
p477
S'0xcb'
p478
sS'high_fuses'
p479
S'0xd8'
p480
sS'low_fuses'
p481
S'0xff'
p482
sS'lock_bits'
p483
S'0x2F'
p484
sS'file'
p485
S'Caterina-Micro.hex'
p486
sS'path'
p487
S'caterina'
p488
sS'unlock_bits'
p489
S'0x3F'
p490
ssS'build'
p491
(dp492
S'core'
p493
S'arduino'
p494
sS'f_cpu'
p495
S'16000000L'
p496
sS'vid'
p497
S'0x2341'
p498
sS'pid'
p499
S'0x8037'
p500
sS'variant'
p501
S'micro'
p502
sS'mcu'
p503
S'atmega32u4'
p504
ssS'name'
p505
S'Arduino Micro'
p506
sS'upload'
p507
(dp508
S'speed'
p509
S'57600'
p510
sS'maximum_size'
p511
S'28672'
p512
sS'protocol'
p513
S'avr109'
p514
sS'disable_flushing'
p515
S'true'
p516
ssaa(lp517
S'mini328'
p518
a(dp519
S'bootloader'
p520
(dp521
S'extended_fuses'
p522
S'0x05'
p523
sS'high_fuses'
p524
S'0xd8'
p525
sS'low_fuses'
p526
S'0xff'
p527
sS'lock_bits'
p528
S'0x0F'
p529
sS'file'
p530
S'optiboot_atmega328-Mini.hex'
p531
sS'path'
p532
S'optiboot'
p533
sS'unlock_bits'
p534
S'0x3F'
p535
ssS'build'
p536
(dp537
S'core'
p538
S'arduino'
p539
sS'mcu'
p540
S'atmega328p'
p541
sS'f_cpu'
p542
S'16000000L'
p543
sS'variant'
p544
S'eightanaloginputs'
p545
ssS'name'
p546
S'Arduino Mini w/ ATmega328'
p547
sS'upload'
p548
(dp549
S'speed'
p550
S'115200'
p551
sS'maximum_size'
p552
S'28672'
p553
sS'protocol'
p554
S'arduino'
p555
ssaa(lp556
S'mini'
p557
a(dp558
S'bootloader'
p559
(dp560
S'extended_fuses'
p561
S'0x00'
p562
sS'high_fuses'
p563
S'0xdd'
p564
sS'low_fuses'
p565
S'0xff'
p566
sS'lock_bits'
p567
S'0x0F'
p568
sS'file'
p569
S'ATmegaBOOT_168_ng.hex'
p570
sS'path'
p571
S'atmega'
p572
sS'unlock_bits'
p573
S'0x3F'
p574
ssS'build'
p575
(dp576
S'core'
p577
S'arduino'
p578
sS'mcu'
p579
S'atmega168'
p580
sS'f_cpu'
p581
S'16000000L'
p582
sS'variant'
p583
S'eightanaloginputs'
p584
ssS'name'
p585
S'Arduino Mini w/ ATmega168'
p586
sS'upload'
p587
(dp588
S'speed'
p589
S'19200'
p590
sS'maximum_size'
p591
S'14336'
p592
sS'protocol'
p593
S'arduino'
p594
ssaa(lp595
S'ethernet'
p596
a(dp597
S'bootloader'
p598
(dp599
S'extended_fuses'
p600
S'0x05'
p601
sS'high_fuses'
p602
S'0xde'
p603
sS'low_fuses'
p604
S'0xff'
p605
sS'lock_bits'
p606
S'0x0F'
p607
sS'file'
p608
S'optiboot_atmega328.hex'
p609
sS'path'
p610
S'optiboot'
p611
sS'unlock_bits'
p612
S'0x3F'
p613
ssS'build'
p614
(dp615
S'f_cpu'
p616
S'16000000L'
p617
sS'mcu'
p618
S'atmega328p'
p619
sS'variant'
p620
S'standard'
p621
sS'core'
p622
S'arduino'
p623
ssS'name'
p624
S'Arduino Ethernet'
p625
sS'upload'
p626
(dp627
S'speed'
p628
S'115200'
p629
sS'maximum_size'
p630
S'32256'
p631
sS'protocol'
p632
S'arduino'
p633
ssaa(lp634
S'fio'
p635
a(dp636
S'bootloader'
p637
(dp638
S'extended_fuses'
p639
S'0x05'
p640
sS'high_fuses'
p641
S'0xDA'
p642
sS'low_fuses'
p643
S'0xFF'
p644
sS'lock_bits'
p645
S'0x0F'
p646
sS'file'
p647
S'ATmegaBOOT_168_atmega328_pro_8MHz.hex'
p648
sS'path'
p649
S'arduino:atmega'
p650
sS'unlock_bits'
p651
S'0x3F'
p652
ssS'build'
p653
(dp654
S'core'
p655
S'arduino'
p656
sS'mcu'
p657
S'atmega328p'
p658
sS'f_cpu'
p659
S'8000000L'
p660
sS'variant'
p661
S'eightanaloginputs'
p662
ssS'name'
p663
S'Arduino Fio'
p664
sS'upload'
p665
(dp666
S'speed'
p667
S'57600'
p668
sS'maximum_size'
p669
S'30720'
p670
sS'protocol'
p671
S'arduino'
p672
ssaa(lp673
S'bt328'
p674
a(dp675
S'bootloader'
p676
(dp677
S'extended_fuses'
p678
S'0x05'
p679
sS'high_fuses'
p680
S'0xd8'
p681
sS'low_fuses'
p682
S'0xff'
p683
sS'lock_bits'
p684
S'0x0F'
p685
sS'file'
p686
S'ATmegaBOOT_168_atmega328_bt.hex'
p687
sS'path'
p688
S'bt'
p689
sS'unlock_bits'
p690
S'0x3F'
p691
ssS'build'
p692
(dp693
S'core'
p694
S'arduino'
p695
sS'mcu'
p696
S'atmega328p'
p697
sS'f_cpu'
p698
S'16000000L'
p699
sS'variant'
p700
S'eightanaloginputs'
p701
ssS'name'
p702
S'Arduino BT w/ ATmega328'
p703
sS'upload'
p704
(dp705
S'speed'
p706
S'19200'
p707
sS'maximum_size'
p708
S'28672'
p709
sS'protocol'
p710
S'arduino'
p711
sS'disable_flushing'
p712
S'true'
p713
ssaa(lp714
S'bt'
p715
a(dp716
S'bootloader'
p717
(dp718
S'extended_fuses'
p719
S'0x00'
p720
sS'high_fuses'
p721
S'0xdd'
p722
sS'low_fuses'
p723
S'0xff'
p724
sS'lock_bits'
p725
S'0x0F'
p726
sS'file'
p727
S'ATmegaBOOT_168.hex'
p728
sS'path'
p729
S'bt'
p730
sS'unlock_bits'
p731
S'0x3F'
p732
ssS'build'
p733
(dp734
S'core'
p735
S'arduino'
p736
sS'mcu'
p737
S'atmega168'
p738
sS'f_cpu'
p739
S'16000000L'
p740
sS'variant'
p741
S'eightanaloginputs'
p742
ssS'name'
p743
S'Arduino BT w/ ATmega168'
p744
sS'upload'
p745
(dp746
S'speed'
p747
S'19200'
p748
sS'maximum_size'
p749
S'14336'
p750
sS'protocol'
p751
S'arduino'
p752
sS'disable_flushing'
p753
S'true'
p754
ssaa(lp755
S'LilyPadUSB'
p756
a(dp757
S'bootloader'
p758
(dp759
S'extended_fuses'
p760
S'0xce'
p761
sS'high_fuses'
p762
S'0xd8'
p763
sS'low_fuses'
p764
S'0xff'
p765
sS'lock_bits'
p766
S'0x2F'
p767
sS'file'
p768
S'Caterina-LilyPadUSB.hex'
p769
sS'path'
p770
S'caterina-LilyPadUSB'
p771
sS'unlock_bits'
p772
S'0x3F'
p773
ssS'build'
p774
(dp775
S'core'
p776
S'arduino'
p777
sS'f_cpu'
p778
S'8000000L'
p779
sS'vid'
p780
S'0x1B4F'
p781
sS'pid'
p782
S'0x9208'
p783
sS'variant'
p784
S'leonardo'
p785
sS'mcu'
p786
S'atmega32u4'
p787
ssS'name'
p788
S'LilyPad Arduino USB'
p789
sS'upload'
p790
(dp791
S'speed'
p792
S'57600'
p793
sS'maximum_size'
p794
S'28672'
p795
sS'protocol'
p796
S'avr109'
p797
sS'disable_flushing'
p798
S'true'
p799
ssaa(lp800
S'lilypad328'
p801
a(dp802
S'bootloader'
p803
(dp804
S'extended_fuses'
p805
S'0x05'
p806
sS'high_fuses'
p807
S'0xDA'
p808
sS'low_fuses'
p809
S'0xFF'
p810
sS'lock_bits'
p811
S'0x0F'
p812
sS'file'
p813
S'ATmegaBOOT_168_atmega328_pro_8MHz.hex'
p814
sS'path'
p815
S'atmega'
p816
sS'unlock_bits'
p817
S'0x3F'
p818
ssS'build'
p819
(dp820
S'core'
p821
S'arduino'
p822
sS'mcu'
p823
S'atmega328p'
p824
sS'f_cpu'
p825
S'8000000L'
p826
sS'variant'
p827
S'standard'
p828
ssS'name'
p829
S'LilyPad Arduino w/ ATmega328'
p830
sS'upload'
p831
(dp832
S'speed'
p833
S'57600'
p834
sS'maximum_size'
p835
S'30720'
p836
sS'protocol'
p837
S'arduino'
p838
ssaa(lp839
S'lilypad'
p840
a(dp841
S'bootloader'
p842
(dp843
S'extended_fuses'
p844
S'0x00'
p845
sS'high_fuses'
p846
S'0xdd'
p847
sS'low_fuses'
p848
S'0xe2'
p849
sS'lock_bits'
p850
S'0x0F'
p851
sS'file'
p852
S'LilyPadBOOT_168.hex'
p853
sS'path'
p854
S'lilypad'
p855
sS'unlock_bits'
p856
S'0x3F'
p857
ssS'build'
p858
(dp859
S'core'
p860
S'arduino'
p861
sS'mcu'
p862
S'atmega168'
p863
sS'f_cpu'
p864
S'8000000L'
p865
sS'variant'
p866
S'standard'
p867
ssS'name'
p868
S'LilyPad Arduino w/ ATmega168'
p869
sS'upload'
p870
(dp871
S'speed'
p872
S'19200'
p873
sS'maximum_size'
p874
S'14336'
p875
sS'protocol'
p876
S'arduino'
p877
ssaa(lp878
S'pro5v328'
p879
a(dp880
S'bootloader'
p881
(dp882
S'extended_fuses'
p883
S'0x05'
p884
sS'high_fuses'
p885
S'0xDA'
p886
sS'low_fuses'
p887
S'0xFF'
p888
sS'lock_bits'
p889
S'0x0F'
p890
sS'file'
p891
S'ATmegaBOOT_168_atmega328.hex'
p892
sS'path'
p893
S'atmega'
p894
sS'unlock_bits'
p895
S'0x3F'
p896
ssS'build'
p897
(dp898
S'core'
p899
S'arduino'
p900
sS'mcu'
p901
S'atmega328p'
p902
sS'f_cpu'
p903
S'16000000L'
p904
sS'variant'
p905
S'standard'
p906
ssS'name'
p907
S'Arduino Pro or Pro Mini (5V, 16 MHz) w/ ATmega328'
p908
sS'upload'
p909
(dp910
S'speed'
p911
S'57600'
p912
sS'maximum_size'
p913
S'30720'
p914
sS'protocol'
p915
S'arduino'
p916
ssaa(lp917
S'pro5v'
p918
a(dp919
S'bootloader'
p920
(dp921
S'extended_fuses'
p922
S'0x00'
p923
sS'high_fuses'
p924
S'0xdd'
p925
sS'low_fuses'
p926
S'0xff'
p927
sS'lock_bits'
p928
S'0x0F'
p929
sS'file'
p930
S'ATmegaBOOT_168_diecimila.hex'
p931
sS'path'
p932
S'atmega'
p933
sS'unlock_bits'
p934
S'0x3F'
p935
ssS'build'
p936
(dp937
S'core'
p938
S'arduino'
p939
sS'mcu'
p940
S'atmega168'
p941
sS'f_cpu'
p942
S'16000000L'
p943
sS'variant'
p944
S'standard'
p945
ssS'name'
p946
S'Arduino Pro or Pro Mini (5V, 16 MHz) w/ ATmega168'
p947
sS'upload'
p948
(dp949
S'speed'
p950
S'19200'
p951
sS'maximum_size'
p952
S'14336'
p953
sS'protocol'
p954
S'arduino'
p955
ssaa(lp956
S'pro328'
p957
a(dp958
S'bootloader'
p959
(dp960
S'extended_fuses'
p961
S'0x05'
p962
sS'high_fuses'
p963
S'0xDA'
p964
sS'low_fuses'
p965
S'0xFF'
p966
sS'lock_bits'
p967
S'0x0F'
p968
sS'file'
p969
S'ATmegaBOOT_168_atmega328_pro_8MHz.hex'
p970
sS'path'
p971
S'atmega'
p972
sS'unlock_bits'
p973
S'0x3F'
p974
ssS'build'
p975
(dp976
S'core'
p977
S'arduino'
p978
sS'mcu'
p979
S'atmega328p'
p980
sS'f_cpu'
p981
S'8000000L'
p982
sS'variant'
p983
S'standard'
p984
ssS'name'
p985
S'Arduino Pro or Pro Mini (3.3V, 8 MHz) w/ ATmega328'
p986
sS'upload'
p987
(dp988
S'speed'
p989
S'57600'
p990
sS'maximum_size'
p991
S'30720'
p992
sS'protocol'
p993
S'arduino'
p994
ssaa(lp995
S'pro'
p996
a(dp997
S'bootloader'
p998
(dp999
S'extended_fuses'
p1000
S'0x00'
p1001
sS'high_fuses'
p1002
S'0xdd'
p1003
sS'low_fuses'
p1004
S'0xc6'
p1005
sS'lock_bits'
p1006
S'0x0F'
p1007
sS'file'
p1008
S'ATmegaBOOT_168_pro_8MHz.hex'
p1009
sS'path'
p1010
S'atmega'
p1011
sS'unlock_bits'
p1012
S'0x3F'
p1013
ssS'build'
p1014
(dp1015
S'core'
p1016
S'arduino'
p1017
sS'mcu'
p1018
S'atmega168'
p1019
sS'f_cpu'
p1020
S'8000000L'
p1021
sS'variant'
p1022
S'standard'
p1023
ssS'name'
p1024
S'Arduino Pro or Pro Mini (3.3V, 8 MHz) w/ ATmega168'
p1025
sS'upload'
p1026
(dp1027
S'speed'
p1028
S'19200'
p1029
sS'maximum_size'
p1030
S'14336'
p1031
sS'protocol'
p1032
S'arduino'
p1033
ssaa(lp1034
S'atmega168'
p1035
a(dp1036
S'bootloader'
p1037
(dp1038
S'extended_fuses'
p1039
S'0x00'
p1040
sS'high_fuses'
p1041
S'0xdd'
p1042
sS'low_fuses'
p1043
S'0xff'
p1044
sS'lock_bits'
p1045
S'0x0F'
p1046
sS'file'
p1047
S'ATmegaBOOT_168_ng.hex'
p1048
sS'path'
p1049
S'atmega'
p1050
sS'unlock_bits'
p1051
S'0x3F'
p1052
ssS'build'
p1053
(dp1054
S'core'
p1055
S'arduino'
p1056
sS'mcu'
p1057
S'atmega168'
p1058
sS'f_cpu'
p1059
S'16000000L'
p1060
sS'variant'
p1061
S'standard'
p1062
ssS'name'
p1063
S'Arduino NG or older w/ ATmega168'
p1064
sS'upload'
p1065
(dp1066
S'speed'
p1067
S'19200'
p1068
sS'maximum_size'
p1069
S'14336'
p1070
sS'protocol'
p1071
S'arduino'
p1072
ssaa(lp1073
S'atmega8'
p1074
a(dp1075
S'bootloader'
p1076
(dp1077
S'high_fuses'
p1078
S'0xca'
p1079
sS'low_fuses'
p1080
S'0xdf'
p1081
sS'lock_bits'
p1082
S'0x0F'
p1083
sS'file'
p1084
S'ATmegaBOOT-prod-firmware-2009-11-07.hex'
p1085
sS'path'
p1086
S'atmega8'
p1087
sS'unlock_bits'
p1088
S'0x3F'
p1089
ssS'build'
p1090
(dp1091
S'core'
p1092
S'arduino'
p1093
sS'mcu'
p1094
S'atmega8'
p1095
sS'f_cpu'
p1096
S'16000000L'
p1097
sS'variant'
p1098
S'standard'
p1099
ssS'name'
p1100
S'Arduino NG or older w/ ATmega8'
p1101
sS'upload'
p1102
(dp1103
S'speed'
p1104
S'19200'
p1105
sS'maximum_size'
p1106
S'7168'
p1107
sS'protocol'
p1108
S'arduino'
p1109
ssaa(lp1110
S'robotControl'
p1111
a(dp1112
S'bootloader'
p1113
(dp1114
S'extended_fuses'
p1115
S'0xcb'
p1116
sS'high_fuses'
p1117
S'0xd8'
p1118
sS'low_fuses'
p1119
S'0xff'
p1120
sS'lock_bits'
p1121
S'0x2F'
p1122
sS'file'
p1123
S'Caterina-Robot-Control.hex'
p1124
sS'path'
p1125
S'caterina-Arduino_Robot'
p1126
sS'unlock_bits'
p1127
S'0x3F'
p1128
ssS'build'
p1129
(dp1130
S'core'
p1131
S'robot'
p1132
sS'f_cpu'
p1133
S'16000000L'
p1134
sS'vid'
p1135
S'0x2341'
p1136
sS'pid'
p1137
S'0x8038'
p1138
sS'variant'
p1139
S'robot_control'
p1140
sS'mcu'
p1141
S'atmega32u4'
p1142
ssS'name'
p1143
S'Arduino Robot Control'
p1144
sS'upload'
p1145
(dp1146
S'speed'
p1147
S'57600'
p1148
sS'maximum_size'
p1149
S'28672'
p1150
sS'protocol'
p1151
S'avr109'
p1152
sS'disable_flushing'
p1153
S'true'
p1154
ssaa(lp1155
S'robotMotor'
p1156
a(dp1157
S'bootloader'
p1158
(dp1159
S'extended_fuses'
p1160
S'0xcb'
p1161
sS'high_fuses'
p1162
S'0xd8'
p1163
sS'low_fuses'
p1164
S'0xff'
p1165
sS'lock_bits'
p1166
S'0x2F'
p1167
sS'file'
p1168
S'Caterina-Robot-Motor.hex'
p1169
sS'path'
p1170
S'caterina-Arduino_Robot'
p1171
sS'unlock_bits'
p1172
S'0x3F'
p1173
ssS'build'
p1174
(dp1175
S'core'
p1176
S'robot'
p1177
sS'f_cpu'
p1178
S'16000000L'
p1179
sS'vid'
p1180
S'0x2341'
p1181
sS'pid'
p1182
S'0x8039'
p1183
sS'variant'
p1184
S'robot_motor'
p1185
sS'mcu'
p1186
S'atmega32u4'
p1187
ssS'name'
p1188
S'Arduino Robot Motor'
p1189
sS'upload'
p1190
(dp1191
S'speed'
p1192
S'57600'
p1193
sS'maximum_size'
p1194
S'28672'
p1195
sS'protocol'
p1196
S'avr109'
p1197
sS'disable_flushing'
p1198
S'true'
p1199
ssaatp1200
Rp1201
(dp1202
S'default'
p1203
S'uno'
p1204
sbtp1205
a(S'ldflags'
p1206
g2
(g3
g4
(lp1207
g6
aS'-Wl,-Os'
p1208
aS'-Wl,--gc-sections'
p1209
atp1210
Rp1211
tp1212
a.