(lp0
(S'cppflags'
p1
ccopy_reg
_reconstructor
p2
(cino.utils
SpaceList
p3
c__builtin__
list
p4
(lp5
S'-mmcu=atmega32u4'
p6
aS'-DF_CPU=16000000L'
p7
aS'-DARDUINO=105'
p8
aS'-I/usr/share/arduino/hardware/arduino/cores/arduino'
p9
aS'-ffunction-sections'
p10
aS'-fdata-sections'
p11
aS'-g'
p12
aS'-Os'
p13
aS'-w'
p14
aS'-DUSB_VID=0x2341'
p15
aS'-DUSB_PID=0x8036'
p16
aS'-I/usr/share/arduino/hardware/arduino/variants/leonardo'
p17
aS'-Ilib/Enerlib'
p18
aS'-I/usr/share/arduino/libraries/VirtualWire'
p19
aS'-I/usr/share/arduino/libraries/VirtualWire/util'
p20
aS'-I/usr/share/arduino/libraries/VirtualWire/doc'
p21
aS'-Ilib/VirtualWire'
p22
aS'-I/usr/share/arduino/hardware/arduino/cores/arduino'
p23
aS'-I/usr/share/arduino/hardware/arduino/cores/arduino/avr-libc'
p24
atp25
Rp26
tp27
a(S'arduino_variants_dir'
p28
S'/usr/share/arduino/hardware/arduino/variants'
p29
tp30
a(S'version.txt'
p31
S'/usr/share/arduino/lib/version.txt'
p32
tp33
a(S'used_libs'
p34
(lp35
S'lib/Enerlib'
p36
aS'/usr/share/arduino/libraries/VirtualWire'
p37
aS'lib/VirtualWire'
p38
aS'/usr/share/arduino/hardware/arduino/cores/arduino'
p39
atp40
a(S'cxx'
p41
S'/usr/share/arduino/hardware/tools/avr/bin/avr-g++'
p42
tp43
a(S'make'
p44
S'/usr/share/arduino/hardware/tools/avr/bin/make'
p45
tp46
a(S'build_dir'
p47
S'.build/leonardo'
p48
tp49
a(S'arduino_core_dir'
p50
g39
tp51
a(S'boards.txt'
p52
S'/usr/share/arduino/hardware/arduino/boards.txt'
p53
tp54
a(S'cxxflags'
p55
g2
(g3
g4
(lp56
S'-fno-exceptions'
p57
atp58
Rp59
tp60
a(S'cc'
p61
S'/usr/share/arduino/hardware/tools/avr/bin/avr-gcc'
p62
tp63
a(S'deps'
p64
g2
(g3
g4
(lp65
S'.build/leonardo/src/dependencies.d'
p66
aS'.build/leonardo/arduino/dependencies.d'
p67
aS'.build/leonardo/VirtualWire/dependencies.d'
p68
aS'.build/leonardo/Enerlib/dependencies.d'
p69
aS'.build/leonardo/VirtualWire/dependencies.d'
p70
atp71
Rp72
tp73
a(S'ar'
p74
S'/usr/share/arduino/hardware/tools/avr/bin/avr-ar'
p75
tp76
a(S'names'
p77
(dp78
S'cpp'
p79
S'%s.cpp'
p80
sS'obj'
p81
S'%s.o'
p82
sS'deps'
p83
S'%s.d'
p84
sS'lib'
p85
S'lib%s.a'
p86
stp87
a(S'cflags'
p88
g2
(g3
g4
(lp89
tp90
Rp91
tp92
a(S'arduino_libraries_dir'
p93
S'/usr/share/arduino/libraries'
p94
tp95
a(S'arduino_lib_version'
p96
g2
(cino.environment
Version
p97
c__builtin__
tuple
p98
(I1
I0
I5
tp99
tp100
Rp101
tp102
a(S'objcopy'
p103
S'/usr/share/arduino/hardware/tools/avr/bin/avr-objcopy'
p104
tp105
a(S'board_models'
p106
cino.environment
BoardModels
p107
((lp108
(lp109
S'uno'
p110
a(dp111
S'bootloader'
p112
(dp113
S'extended_fuses'
p114
S'0x05'
p115
sS'high_fuses'
p116
S'0xde'
p117
sS'low_fuses'
p118
S'0xff'
p119
sS'lock_bits'
p120
S'0x0F'
p121
sS'file'
p122
S'optiboot_atmega328.hex'
p123
sS'path'
p124
S'optiboot'
p125
sS'unlock_bits'
p126
S'0x3F'
p127
ssS'upload'
p128
(dp129
S'speed'
p130
S'115200'
p131
sS'maximum_size'
p132
S'32256'
p133
sS'protocol'
p134
S'arduino'
p135
ssS'name'
p136
S'Arduino Uno'
p137
sS'build'
p138
(dp139
S'core'
p140
S'arduino'
p141
sS'mcu'
p142
S'atmega328p'
p143
sS'f_cpu'
p144
S'16000000L'
p145
sS'variant'
p146
S'standard'
p147
ssaa(lp148
S'atmega328'
p149
a(dp150
S'bootloader'
p151
(dp152
S'extended_fuses'
p153
S'0x05'
p154
sS'high_fuses'
p155
S'0xDA'
p156
sS'low_fuses'
p157
S'0xFF'
p158
sS'lock_bits'
p159
S'0x0F'
p160
sS'file'
p161
S'ATmegaBOOT_168_atmega328.hex'
p162
sS'path'
p163
S'atmega'
p164
sS'unlock_bits'
p165
S'0x3F'
p166
ssS'upload'
p167
(dp168
S'speed'
p169
S'57600'
p170
sS'maximum_size'
p171
S'30720'
p172
sS'protocol'
p173
S'arduino'
p174
ssS'name'
p175
S'Arduino Duemilanove w/ ATmega328'
p176
sS'build'
p177
(dp178
S'core'
p179
S'arduino'
p180
sS'mcu'
p181
S'atmega328p'
p182
sS'f_cpu'
p183
S'16000000L'
p184
sS'variant'
p185
S'standard'
p186
ssaa(lp187
S'diecimila'
p188
a(dp189
S'bootloader'
p190
(dp191
S'extended_fuses'
p192
S'0x00'
p193
sS'high_fuses'
p194
S'0xdd'
p195
sS'low_fuses'
p196
S'0xff'
p197
sS'lock_bits'
p198
S'0x0F'
p199
sS'file'
p200
S'ATmegaBOOT_168_diecimila.hex'
p201
sS'path'
p202
S'atmega'
p203
sS'unlock_bits'
p204
S'0x3F'
p205
ssS'upload'
p206
(dp207
S'speed'
p208
S'19200'
p209
sS'maximum_size'
p210
S'14336'
p211
sS'protocol'
p212
S'arduino'
p213
ssS'name'
p214
S'Arduino Diecimila or Duemilanove w/ ATmega168'
p215
sS'build'
p216
(dp217
S'core'
p218
S'arduino'
p219
sS'mcu'
p220
S'atmega168'
p221
sS'f_cpu'
p222
S'16000000L'
p223
sS'variant'
p224
S'standard'
p225
ssaa(lp226
S'nano328'
p227
a(dp228
S'bootloader'
p229
(dp230
S'extended_fuses'
p231
S'0x05'
p232
sS'high_fuses'
p233
S'0xDA'
p234
sS'low_fuses'
p235
S'0xFF'
p236
sS'lock_bits'
p237
S'0x0F'
p238
sS'file'
p239
S'ATmegaBOOT_168_atmega328.hex'
p240
sS'path'
p241
S'atmega'
p242
sS'unlock_bits'
p243
S'0x3F'
p244
ssS'upload'
p245
(dp246
S'speed'
p247
S'57600'
p248
sS'maximum_size'
p249
S'30720'
p250
sS'protocol'
p251
S'arduino'
p252
ssS'name'
p253
S'Arduino Nano w/ ATmega328'
p254
sS'build'
p255
(dp256
S'core'
p257
S'arduino'
p258
sS'mcu'
p259
S'atmega328p'
p260
sS'f_cpu'
p261
S'16000000L'
p262
sS'variant'
p263
S'eightanaloginputs'
p264
ssaa(lp265
S'nano'
p266
a(dp267
S'bootloader'
p268
(dp269
S'extended_fuses'
p270
S'0x00'
p271
sS'high_fuses'
p272
S'0xdd'
p273
sS'low_fuses'
p274
S'0xff'
p275
sS'lock_bits'
p276
S'0x0F'
p277
sS'file'
p278
S'ATmegaBOOT_168_diecimila.hex'
p279
sS'path'
p280
S'atmega'
p281
sS'unlock_bits'
p282
S'0x3F'
p283
ssS'upload'
p284
(dp285
S'speed'
p286
S'19200'
p287
sS'maximum_size'
p288
S'14336'
p289
sS'protocol'
p290
S'arduino'
p291
ssS'name'
p292
S'Arduino Nano w/ ATmega168'
p293
sS'build'
p294
(dp295
S'core'
p296
S'arduino'
p297
sS'mcu'
p298
S'atmega168'
p299
sS'f_cpu'
p300
S'16000000L'
p301
sS'variant'
p302
S'eightanaloginputs'
p303
ssaa(lp304
S'mega2560'
p305
a(dp306
S'bootloader'
p307
(dp308
S'extended_fuses'
p309
S'0xFD'
p310
sS'high_fuses'
p311
S'0xD8'
p312
sS'low_fuses'
p313
S'0xFF'
p314
sS'lock_bits'
p315
S'0x0F'
p316
sS'file'
p317
S'stk500boot_v2_mega2560.hex'
p318
sS'path'
p319
S'stk500v2'
p320
sS'unlock_bits'
p321
S'0x3F'
p322
ssS'upload'
p323
(dp324
S'speed'
p325
S'115200'
p326
sS'maximum_size'
p327
S'258048'
p328
sS'protocol'
p329
S'wiring'
p330
ssS'name'
p331
S'Arduino Mega 2560 or Mega ADK'
p332
sS'build'
p333
(dp334
S'core'
p335
S'arduino'
p336
sS'mcu'
p337
S'atmega2560'
p338
sS'f_cpu'
p339
S'16000000L'
p340
sS'variant'
p341
S'mega'
p342
ssaa(lp343
S'mega'
p344
a(dp345
S'bootloader'
p346
(dp347
S'extended_fuses'
p348
S'0xF5'
p349
sS'high_fuses'
p350
S'0xDA'
p351
sS'low_fuses'
p352
S'0xFF'
p353
sS'lock_bits'
p354
S'0x0F'
p355
sS'file'
p356
S'ATmegaBOOT_168_atmega1280.hex'
p357
sS'path'
p358
S'atmega'
p359
sS'unlock_bits'
p360
S'0x3F'
p361
ssS'upload'
p362
(dp363
S'speed'
p364
S'57600'
p365
sS'maximum_size'
p366
S'126976'
p367
sS'protocol'
p368
S'arduino'
p369
ssS'name'
p370
S'Arduino Mega (ATmega1280)'
p371
sS'build'
p372
(dp373
S'core'
p374
S'arduino'
p375
sS'mcu'
p376
S'atmega1280'
p377
sS'f_cpu'
p378
S'16000000L'
p379
sS'variant'
p380
S'mega'
p381
ssaa(lp382
S'leonardo'
p383
a(dp384
S'bootloader'
p385
(dp386
S'extended_fuses'
p387
S'0xcb'
p388
sS'high_fuses'
p389
S'0xd8'
p390
sS'low_fuses'
p391
S'0xff'
p392
sS'lock_bits'
p393
S'0x2F'
p394
sS'file'
p395
S'Caterina-Leonardo.hex'
p396
sS'path'
p397
S'caterina'
p398
sS'unlock_bits'
p399
S'0x3F'
p400
ssS'upload'
p401
(dp402
S'speed'
p403
S'57600'
p404
sS'maximum_size'
p405
S'28672'
p406
sS'protocol'
p407
S'avr109'
p408
sS'disable_flushing'
p409
S'true'
p410
ssS'name'
p411
S'Arduino Leonardo'
p412
sS'build'
p413
(dp414
S'core'
p415
S'arduino'
p416
sS'f_cpu'
p417
S'16000000L'
p418
sS'vid'
p419
S'0x2341'
p420
sS'pid'
p421
S'0x8036'
p422
sS'variant'
p423
S'leonardo'
p424
sS'mcu'
p425
S'atmega32u4'
p426
ssaa(lp427
S'esplora'
p428
a(dp429
S'bootloader'
p430
(dp431
S'extended_fuses'
p432
S'0xcb'
p433
sS'high_fuses'
p434
S'0xd8'
p435
sS'low_fuses'
p436
S'0xff'
p437
sS'lock_bits'
p438
S'0x2F'
p439
sS'file'
p440
S'Caterina-Esplora.hex'
p441
sS'path'
p442
S'caterina'
p443
sS'unlock_bits'
p444
S'0x3F'
p445
ssS'upload'
p446
(dp447
S'speed'
p448
S'57600'
p449
sS'maximum_size'
p450
S'28672'
p451
sS'protocol'
p452
S'avr109'
p453
sS'disable_flushing'
p454
S'true'
p455
ssS'name'
p456
S'Arduino Esplora'
p457
sS'build'
p458
(dp459
S'core'
p460
S'arduino'
p461
sS'f_cpu'
p462
S'16000000L'
p463
sS'vid'
p464
S'0x2341'
p465
sS'pid'
p466
S'0x803C'
p467
sS'variant'
p468
S'leonardo'
p469
sS'mcu'
p470
S'atmega32u4'
p471
ssaa(lp472
S'micro'
p473
a(dp474
S'bootloader'
p475
(dp476
S'extended_fuses'
p477
S'0xcb'
p478
sS'high_fuses'
p479
S'0xd8'
p480
sS'low_fuses'
p481
S'0xff'
p482
sS'lock_bits'
p483
S'0x2F'
p484
sS'file'
p485
S'Caterina-Micro.hex'
p486
sS'path'
p487
S'caterina'
p488
sS'unlock_bits'
p489
S'0x3F'
p490
ssS'upload'
p491
(dp492
S'speed'
p493
S'57600'
p494
sS'maximum_size'
p495
S'28672'
p496
sS'protocol'
p497
S'avr109'
p498
sS'disable_flushing'
p499
S'true'
p500
ssS'name'
p501
S'Arduino Micro'
p502
sS'build'
p503
(dp504
S'core'
p505
S'arduino'
p506
sS'f_cpu'
p507
S'16000000L'
p508
sS'vid'
p509
S'0x2341'
p510
sS'pid'
p511
S'0x8037'
p512
sS'variant'
p513
S'micro'
p514
sS'mcu'
p515
S'atmega32u4'
p516
ssaa(lp517
S'mini328'
p518
a(dp519
S'bootloader'
p520
(dp521
S'extended_fuses'
p522
S'0x05'
p523
sS'high_fuses'
p524
S'0xd8'
p525
sS'low_fuses'
p526
S'0xff'
p527
sS'lock_bits'
p528
S'0x0F'
p529
sS'file'
p530
S'optiboot_atmega328-Mini.hex'
p531
sS'path'
p532
S'optiboot'
p533
sS'unlock_bits'
p534
S'0x3F'
p535
ssS'upload'
p536
(dp537
S'speed'
p538
S'115200'
p539
sS'maximum_size'
p540
S'28672'
p541
sS'protocol'
p542
S'arduino'
p543
ssS'name'
p544
S'Arduino Mini w/ ATmega328'
p545
sS'build'
p546
(dp547
S'core'
p548
S'arduino'
p549
sS'mcu'
p550
S'atmega328p'
p551
sS'f_cpu'
p552
S'16000000L'
p553
sS'variant'
p554
S'eightanaloginputs'
p555
ssaa(lp556
S'mini'
p557
a(dp558
S'bootloader'
p559
(dp560
S'extended_fuses'
p561
S'0x00'
p562
sS'high_fuses'
p563
S'0xdd'
p564
sS'low_fuses'
p565
S'0xff'
p566
sS'lock_bits'
p567
S'0x0F'
p568
sS'file'
p569
S'ATmegaBOOT_168_ng.hex'
p570
sS'path'
p571
S'atmega'
p572
sS'unlock_bits'
p573
S'0x3F'
p574
ssS'upload'
p575
(dp576
S'speed'
p577
S'19200'
p578
sS'maximum_size'
p579
S'14336'
p580
sS'protocol'
p581
S'arduino'
p582
ssS'name'
p583
S'Arduino Mini w/ ATmega168'
p584
sS'build'
p585
(dp586
S'core'
p587
S'arduino'
p588
sS'mcu'
p589
S'atmega168'
p590
sS'f_cpu'
p591
S'16000000L'
p592
sS'variant'
p593
S'eightanaloginputs'
p594
ssaa(lp595
S'ethernet'
p596
a(dp597
S'bootloader'
p598
(dp599
S'extended_fuses'
p600
S'0x05'
p601
sS'high_fuses'
p602
S'0xde'
p603
sS'low_fuses'
p604
S'0xff'
p605
sS'lock_bits'
p606
S'0x0F'
p607
sS'file'
p608
S'optiboot_atmega328.hex'
p609
sS'path'
p610
S'optiboot'
p611
sS'unlock_bits'
p612
S'0x3F'
p613
ssS'upload'
p614
(dp615
S'speed'
p616
S'115200'
p617
sS'maximum_size'
p618
S'32256'
p619
sS'protocol'
p620
S'arduino'
p621
ssS'name'
p622
S'Arduino Ethernet'
p623
sS'build'
p624
(dp625
S'f_cpu'
p626
S'16000000L'
p627
sS'mcu'
p628
S'atmega328p'
p629
sS'variant'
p630
S'standard'
p631
sS'core'
p632
S'arduino'
p633
ssaa(lp634
S'fio'
p635
a(dp636
S'bootloader'
p637
(dp638
S'extended_fuses'
p639
S'0x05'
p640
sS'high_fuses'
p641
S'0xDA'
p642
sS'low_fuses'
p643
S'0xFF'
p644
sS'lock_bits'
p645
S'0x0F'
p646
sS'file'
p647
S'ATmegaBOOT_168_atmega328_pro_8MHz.hex'
p648
sS'path'
p649
S'arduino:atmega'
p650
sS'unlock_bits'
p651
S'0x3F'
p652
ssS'upload'
p653
(dp654
S'speed'
p655
S'57600'
p656
sS'maximum_size'
p657
S'30720'
p658
sS'protocol'
p659
S'arduino'
p660
ssS'name'
p661
S'Arduino Fio'
p662
sS'build'
p663
(dp664
S'core'
p665
S'arduino'
p666
sS'mcu'
p667
S'atmega328p'
p668
sS'f_cpu'
p669
S'8000000L'
p670
sS'variant'
p671
S'eightanaloginputs'
p672
ssaa(lp673
S'bt328'
p674
a(dp675
S'bootloader'
p676
(dp677
S'extended_fuses'
p678
S'0x05'
p679
sS'high_fuses'
p680
S'0xd8'
p681
sS'low_fuses'
p682
S'0xff'
p683
sS'lock_bits'
p684
S'0x0F'
p685
sS'file'
p686
S'ATmegaBOOT_168_atmega328_bt.hex'
p687
sS'path'
p688
S'bt'
p689
sS'unlock_bits'
p690
S'0x3F'
p691
ssS'upload'
p692
(dp693
S'speed'
p694
S'19200'
p695
sS'maximum_size'
p696
S'28672'
p697
sS'protocol'
p698
S'arduino'
p699
sS'disable_flushing'
p700
S'true'
p701
ssS'name'
p702
S'Arduino BT w/ ATmega328'
p703
sS'build'
p704
(dp705
S'core'
p706
S'arduino'
p707
sS'mcu'
p708
S'atmega328p'
p709
sS'f_cpu'
p710
S'16000000L'
p711
sS'variant'
p712
S'eightanaloginputs'
p713
ssaa(lp714
S'bt'
p715
a(dp716
S'bootloader'
p717
(dp718
S'extended_fuses'
p719
S'0x00'
p720
sS'high_fuses'
p721
S'0xdd'
p722
sS'low_fuses'
p723
S'0xff'
p724
sS'lock_bits'
p725
S'0x0F'
p726
sS'file'
p727
S'ATmegaBOOT_168.hex'
p728
sS'path'
p729
S'bt'
p730
sS'unlock_bits'
p731
S'0x3F'
p732
ssS'upload'
p733
(dp734
S'speed'
p735
S'19200'
p736
sS'maximum_size'
p737
S'14336'
p738
sS'protocol'
p739
S'arduino'
p740
sS'disable_flushing'
p741
S'true'
p742
ssS'name'
p743
S'Arduino BT w/ ATmega168'
p744
sS'build'
p745
(dp746
S'core'
p747
S'arduino'
p748
sS'mcu'
p749
S'atmega168'
p750
sS'f_cpu'
p751
S'16000000L'
p752
sS'variant'
p753
S'eightanaloginputs'
p754
ssaa(lp755
S'LilyPadUSB'
p756
a(dp757
S'bootloader'
p758
(dp759
S'extended_fuses'
p760
S'0xce'
p761
sS'high_fuses'
p762
S'0xd8'
p763
sS'low_fuses'
p764
S'0xff'
p765
sS'lock_bits'
p766
S'0x2F'
p767
sS'file'
p768
S'Caterina-LilyPadUSB.hex'
p769
sS'path'
p770
S'caterina-LilyPadUSB'
p771
sS'unlock_bits'
p772
S'0x3F'
p773
ssS'upload'
p774
(dp775
S'speed'
p776
S'57600'
p777
sS'maximum_size'
p778
S'28672'
p779
sS'protocol'
p780
S'avr109'
p781
sS'disable_flushing'
p782
S'true'
p783
ssS'name'
p784
S'LilyPad Arduino USB'
p785
sS'build'
p786
(dp787
S'core'
p788
S'arduino'
p789
sS'f_cpu'
p790
S'8000000L'
p791
sS'vid'
p792
S'0x1B4F'
p793
sS'pid'
p794
S'0x9208'
p795
sS'variant'
p796
S'leonardo'
p797
sS'mcu'
p798
S'atmega32u4'
p799
ssaa(lp800
S'lilypad328'
p801
a(dp802
S'bootloader'
p803
(dp804
S'extended_fuses'
p805
S'0x05'
p806
sS'high_fuses'
p807
S'0xDA'
p808
sS'low_fuses'
p809
S'0xFF'
p810
sS'lock_bits'
p811
S'0x0F'
p812
sS'file'
p813
S'ATmegaBOOT_168_atmega328_pro_8MHz.hex'
p814
sS'path'
p815
S'atmega'
p816
sS'unlock_bits'
p817
S'0x3F'
p818
ssS'upload'
p819
(dp820
S'speed'
p821
S'57600'
p822
sS'maximum_size'
p823
S'30720'
p824
sS'protocol'
p825
S'arduino'
p826
ssS'name'
p827
S'LilyPad Arduino w/ ATmega328'
p828
sS'build'
p829
(dp830
S'core'
p831
S'arduino'
p832
sS'mcu'
p833
S'atmega328p'
p834
sS'f_cpu'
p835
S'8000000L'
p836
sS'variant'
p837
S'standard'
p838
ssaa(lp839
S'lilypad'
p840
a(dp841
S'bootloader'
p842
(dp843
S'extended_fuses'
p844
S'0x00'
p845
sS'high_fuses'
p846
S'0xdd'
p847
sS'low_fuses'
p848
S'0xe2'
p849
sS'lock_bits'
p850
S'0x0F'
p851
sS'file'
p852
S'LilyPadBOOT_168.hex'
p853
sS'path'
p854
S'lilypad'
p855
sS'unlock_bits'
p856
S'0x3F'
p857
ssS'upload'
p858
(dp859
S'speed'
p860
S'19200'
p861
sS'maximum_size'
p862
S'14336'
p863
sS'protocol'
p864
S'arduino'
p865
ssS'name'
p866
S'LilyPad Arduino w/ ATmega168'
p867
sS'build'
p868
(dp869
S'core'
p870
S'arduino'
p871
sS'mcu'
p872
S'atmega168'
p873
sS'f_cpu'
p874
S'8000000L'
p875
sS'variant'
p876
S'standard'
p877
ssaa(lp878
S'pro5v328'
p879
a(dp880
S'bootloader'
p881
(dp882
S'extended_fuses'
p883
S'0x05'
p884
sS'high_fuses'
p885
S'0xDA'
p886
sS'low_fuses'
p887
S'0xFF'
p888
sS'lock_bits'
p889
S'0x0F'
p890
sS'file'
p891
S'ATmegaBOOT_168_atmega328.hex'
p892
sS'path'
p893
S'atmega'
p894
sS'unlock_bits'
p895
S'0x3F'
p896
ssS'upload'
p897
(dp898
S'speed'
p899
S'57600'
p900
sS'maximum_size'
p901
S'30720'
p902
sS'protocol'
p903
S'arduino'
p904
ssS'name'
p905
S'Arduino Pro or Pro Mini (5V, 16 MHz) w/ ATmega328'
p906
sS'build'
p907
(dp908
S'core'
p909
S'arduino'
p910
sS'mcu'
p911
S'atmega328p'
p912
sS'f_cpu'
p913
S'16000000L'
p914
sS'variant'
p915
S'standard'
p916
ssaa(lp917
S'pro5v'
p918
a(dp919
S'bootloader'
p920
(dp921
S'extended_fuses'
p922
S'0x00'
p923
sS'high_fuses'
p924
S'0xdd'
p925
sS'low_fuses'
p926
S'0xff'
p927
sS'lock_bits'
p928
S'0x0F'
p929
sS'file'
p930
S'ATmegaBOOT_168_diecimila.hex'
p931
sS'path'
p932
S'atmega'
p933
sS'unlock_bits'
p934
S'0x3F'
p935
ssS'upload'
p936
(dp937
S'speed'
p938
S'19200'
p939
sS'maximum_size'
p940
S'14336'
p941
sS'protocol'
p942
S'arduino'
p943
ssS'name'
p944
S'Arduino Pro or Pro Mini (5V, 16 MHz) w/ ATmega168'
p945
sS'build'
p946
(dp947
S'core'
p948
S'arduino'
p949
sS'mcu'
p950
S'atmega168'
p951
sS'f_cpu'
p952
S'16000000L'
p953
sS'variant'
p954
S'standard'
p955
ssaa(lp956
S'pro328'
p957
a(dp958
S'bootloader'
p959
(dp960
S'extended_fuses'
p961
S'0x05'
p962
sS'high_fuses'
p963
S'0xDA'
p964
sS'low_fuses'
p965
S'0xFF'
p966
sS'lock_bits'
p967
S'0x0F'
p968
sS'file'
p969
S'ATmegaBOOT_168_atmega328_pro_8MHz.hex'
p970
sS'path'
p971
S'atmega'
p972
sS'unlock_bits'
p973
S'0x3F'
p974
ssS'upload'
p975
(dp976
S'speed'
p977
S'57600'
p978
sS'maximum_size'
p979
S'30720'
p980
sS'protocol'
p981
S'arduino'
p982
ssS'name'
p983
S'Arduino Pro or Pro Mini (3.3V, 8 MHz) w/ ATmega328'
p984
sS'build'
p985
(dp986
S'core'
p987
S'arduino'
p988
sS'mcu'
p989
S'atmega328p'
p990
sS'f_cpu'
p991
S'8000000L'
p992
sS'variant'
p993
S'standard'
p994
ssaa(lp995
S'pro'
p996
a(dp997
S'bootloader'
p998
(dp999
S'extended_fuses'
p1000
S'0x00'
p1001
sS'high_fuses'
p1002
S'0xdd'
p1003
sS'low_fuses'
p1004
S'0xc6'
p1005
sS'lock_bits'
p1006
S'0x0F'
p1007
sS'file'
p1008
S'ATmegaBOOT_168_pro_8MHz.hex'
p1009
sS'path'
p1010
S'atmega'
p1011
sS'unlock_bits'
p1012
S'0x3F'
p1013
ssS'upload'
p1014
(dp1015
S'speed'
p1016
S'19200'
p1017
sS'maximum_size'
p1018
S'14336'
p1019
sS'protocol'
p1020
S'arduino'
p1021
ssS'name'
p1022
S'Arduino Pro or Pro Mini (3.3V, 8 MHz) w/ ATmega168'
p1023
sS'build'
p1024
(dp1025
S'core'
p1026
S'arduino'
p1027
sS'mcu'
p1028
S'atmega168'
p1029
sS'f_cpu'
p1030
S'8000000L'
p1031
sS'variant'
p1032
S'standard'
p1033
ssaa(lp1034
S'atmega168'
p1035
a(dp1036
S'bootloader'
p1037
(dp1038
S'extended_fuses'
p1039
S'0x00'
p1040
sS'high_fuses'
p1041
S'0xdd'
p1042
sS'low_fuses'
p1043
S'0xff'
p1044
sS'lock_bits'
p1045
S'0x0F'
p1046
sS'file'
p1047
S'ATmegaBOOT_168_ng.hex'
p1048
sS'path'
p1049
S'atmega'
p1050
sS'unlock_bits'
p1051
S'0x3F'
p1052
ssS'upload'
p1053
(dp1054
S'speed'
p1055
S'19200'
p1056
sS'maximum_size'
p1057
S'14336'
p1058
sS'protocol'
p1059
S'arduino'
p1060
ssS'name'
p1061
S'Arduino NG or older w/ ATmega168'
p1062
sS'build'
p1063
(dp1064
S'core'
p1065
S'arduino'
p1066
sS'mcu'
p1067
S'atmega168'
p1068
sS'f_cpu'
p1069
S'16000000L'
p1070
sS'variant'
p1071
S'standard'
p1072
ssaa(lp1073
S'atmega8'
p1074
a(dp1075
S'bootloader'
p1076
(dp1077
S'high_fuses'
p1078
S'0xca'
p1079
sS'low_fuses'
p1080
S'0xdf'
p1081
sS'lock_bits'
p1082
S'0x0F'
p1083
sS'file'
p1084
S'ATmegaBOOT-prod-firmware-2009-11-07.hex'
p1085
sS'path'
p1086
S'atmega8'
p1087
sS'unlock_bits'
p1088
S'0x3F'
p1089
ssS'upload'
p1090
(dp1091
S'speed'
p1092
S'19200'
p1093
sS'maximum_size'
p1094
S'7168'
p1095
sS'protocol'
p1096
S'arduino'
p1097
ssS'name'
p1098
S'Arduino NG or older w/ ATmega8'
p1099
sS'build'
p1100
(dp1101
S'core'
p1102
S'arduino'
p1103
sS'mcu'
p1104
S'atmega8'
p1105
sS'f_cpu'
p1106
S'16000000L'
p1107
sS'variant'
p1108
S'standard'
p1109
ssaa(lp1110
S'robotControl'
p1111
a(dp1112
S'bootloader'
p1113
(dp1114
S'extended_fuses'
p1115
S'0xcb'
p1116
sS'high_fuses'
p1117
S'0xd8'
p1118
sS'low_fuses'
p1119
S'0xff'
p1120
sS'lock_bits'
p1121
S'0x2F'
p1122
sS'file'
p1123
S'Caterina-Robot-Control.hex'
p1124
sS'path'
p1125
S'caterina-Arduino_Robot'
p1126
sS'unlock_bits'
p1127
S'0x3F'
p1128
ssS'upload'
p1129
(dp1130
S'speed'
p1131
S'57600'
p1132
sS'maximum_size'
p1133
S'28672'
p1134
sS'protocol'
p1135
S'avr109'
p1136
sS'disable_flushing'
p1137
S'true'
p1138
ssS'name'
p1139
S'Arduino Robot Control'
p1140
sS'build'
p1141
(dp1142
S'core'
p1143
S'robot'
p1144
sS'f_cpu'
p1145
S'16000000L'
p1146
sS'vid'
p1147
S'0x2341'
p1148
sS'pid'
p1149
S'0x8038'
p1150
sS'variant'
p1151
S'robot_control'
p1152
sS'mcu'
p1153
S'atmega32u4'
p1154
ssaa(lp1155
S'robotMotor'
p1156
a(dp1157
S'bootloader'
p1158
(dp1159
S'extended_fuses'
p1160
S'0xcb'
p1161
sS'high_fuses'
p1162
S'0xd8'
p1163
sS'low_fuses'
p1164
S'0xff'
p1165
sS'lock_bits'
p1166
S'0x2F'
p1167
sS'file'
p1168
S'Caterina-Robot-Motor.hex'
p1169
sS'path'
p1170
S'caterina-Arduino_Robot'
p1171
sS'unlock_bits'
p1172
S'0x3F'
p1173
ssS'upload'
p1174
(dp1175
S'speed'
p1176
S'57600'
p1177
sS'maximum_size'
p1178
S'28672'
p1179
sS'protocol'
p1180
S'avr109'
p1181
sS'disable_flushing'
p1182
S'true'
p1183
ssS'name'
p1184
S'Arduino Robot Motor'
p1185
sS'build'
p1186
(dp1187
S'core'
p1188
S'robot'
p1189
sS'f_cpu'
p1190
S'16000000L'
p1191
sS'vid'
p1192
S'0x2341'
p1193
sS'pid'
p1194
S'0x8039'
p1195
sS'variant'
p1196
S'robot_motor'
p1197
sS'mcu'
p1198
S'atmega32u4'
p1199
ssaatp1200
Rp1201
(dp1202
S'default'
p1203
S'uno'
p1204
sbtp1205
a(S'ldflags'
p1206
g2
(g3
g4
(lp1207
g6
aS'-Wl,-Os'
p1208
aS'-Wl,--gc-sections'
p1209
atp1210
Rp1211
tp1212
a.