(lp0
(S'cppflags'
p1
ccopy_reg
_reconstructor
p2
(cino.utils
SpaceList
p3
c__builtin__
list
p4
(lp5
S'-mmcu=atmega328p'
p6
aS'-DF_CPU=16000000L'
p7
aS'-DARDUINO=105'
p8
aS'-I/usr/share/arduino/hardware/arduino/cores/arduino'
p9
aS'-ffunction-sections'
p10
aS'-fdata-sections'
p11
aS'-g'
p12
aS'-Os'
p13
aS'-w'
p14
aS'-I/usr/share/arduino/hardware/arduino/variants/eightanaloginputs'
p15
aS'-I/usr/share/arduino/libraries/VirtualWire'
p16
aS'-I/usr/share/arduino/libraries/VirtualWire/util'
p17
aS'-I/usr/share/arduino/libraries/VirtualWire/doc'
p18
aS'-I/usr/share/arduino/hardware/arduino/cores/arduino'
p19
aS'-I/usr/share/arduino/hardware/arduino/cores/arduino/avr-libc'
p20
atp21
Rp22
tp23
a(S'cxx'
p24
S'/usr/share/arduino/hardware/tools/avr/bin/avr-g++'
p25
tp26
a(S'arduino_libraries_dir'
p27
S'/usr/share/arduino/libraries'
p28
tp29
a(S'avrdude'
p30
S'/usr/share/arduino/hardware/tools/avrdude'
p31
tp32
a(S'ar'
p33
S'/usr/share/arduino/hardware/tools/avr/bin/avr-ar'
p34
tp35
a(S'names'
p36
(dp37
S'cpp'
p38
S'%s.cpp'
p39
sS'obj'
p40
S'%s.o'
p41
sS'deps'
p42
S'%s.d'
p43
sS'lib'
p44
S'lib%s.a'
p45
stp46
a(S'ldflags'
p47
g2
(g3
g4
(lp48
g6
aS'-Wl,-Os'
p49
aS'-Wl,--gc-sections'
p50
atp51
Rp52
tp53
a(S'arduino_lib_version'
p54
g2
(cino.environment
Version
p55
c__builtin__
tuple
p56
(I1
I0
I5
tp57
tp58
Rp59
tp60
a(S'objcopy'
p61
S'/usr/share/arduino/hardware/tools/avr/bin/avr-objcopy'
p62
tp63
a(S'board_models'
p64
cino.environment
BoardModels
p65
((lp66
(lp67
S'uno'
p68
a(dp69
S'build'
p70
(dp71
S'core'
p72
S'arduino'
p73
sS'mcu'
p74
S'atmega328p'
p75
sS'f_cpu'
p76
S'16000000L'
p77
sS'variant'
p78
S'standard'
p79
ssS'bootloader'
p80
(dp81
S'extended_fuses'
p82
S'0x05'
p83
sS'high_fuses'
p84
S'0xde'
p85
sS'low_fuses'
p86
S'0xff'
p87
sS'lock_bits'
p88
S'0x0F'
p89
sS'file'
p90
S'optiboot_atmega328.hex'
p91
sS'path'
p92
S'optiboot'
p93
sS'unlock_bits'
p94
S'0x3F'
p95
ssS'upload'
p96
(dp97
S'protocol'
p98
S'arduino'
p99
sS'maximum_size'
p100
S'32256'
p101
sS'speed'
p102
S'115200'
p103
ssS'name'
p104
S'Arduino Uno'
p105
saa(lp106
S'atmega328'
p107
a(dp108
S'build'
p109
(dp110
S'core'
p111
S'arduino'
p112
sS'mcu'
p113
S'atmega328p'
p114
sS'f_cpu'
p115
S'16000000L'
p116
sS'variant'
p117
S'standard'
p118
ssS'bootloader'
p119
(dp120
S'extended_fuses'
p121
S'0x05'
p122
sS'high_fuses'
p123
S'0xDA'
p124
sS'low_fuses'
p125
S'0xFF'
p126
sS'lock_bits'
p127
S'0x0F'
p128
sS'file'
p129
S'ATmegaBOOT_168_atmega328.hex'
p130
sS'path'
p131
S'atmega'
p132
sS'unlock_bits'
p133
S'0x3F'
p134
ssS'upload'
p135
(dp136
S'protocol'
p137
S'arduino'
p138
sS'maximum_size'
p139
S'30720'
p140
sS'speed'
p141
S'57600'
p142
ssS'name'
p143
S'Arduino Duemilanove w/ ATmega328'
p144
saa(lp145
S'diecimila'
p146
a(dp147
S'build'
p148
(dp149
S'core'
p150
S'arduino'
p151
sS'mcu'
p152
S'atmega168'
p153
sS'f_cpu'
p154
S'16000000L'
p155
sS'variant'
p156
S'standard'
p157
ssS'bootloader'
p158
(dp159
S'extended_fuses'
p160
S'0x00'
p161
sS'high_fuses'
p162
S'0xdd'
p163
sS'low_fuses'
p164
S'0xff'
p165
sS'lock_bits'
p166
S'0x0F'
p167
sS'file'
p168
S'ATmegaBOOT_168_diecimila.hex'
p169
sS'path'
p170
S'atmega'
p171
sS'unlock_bits'
p172
S'0x3F'
p173
ssS'upload'
p174
(dp175
S'protocol'
p176
S'arduino'
p177
sS'maximum_size'
p178
S'14336'
p179
sS'speed'
p180
S'19200'
p181
ssS'name'
p182
S'Arduino Diecimila or Duemilanove w/ ATmega168'
p183
saa(lp184
S'nano328'
p185
a(dp186
S'build'
p187
(dp188
S'core'
p189
S'arduino'
p190
sS'mcu'
p191
S'atmega328p'
p192
sS'f_cpu'
p193
S'16000000L'
p194
sS'variant'
p195
S'eightanaloginputs'
p196
ssS'bootloader'
p197
(dp198
S'extended_fuses'
p199
S'0x05'
p200
sS'high_fuses'
p201
S'0xDA'
p202
sS'low_fuses'
p203
S'0xFF'
p204
sS'lock_bits'
p205
S'0x0F'
p206
sS'file'
p207
S'ATmegaBOOT_168_atmega328.hex'
p208
sS'path'
p209
S'atmega'
p210
sS'unlock_bits'
p211
S'0x3F'
p212
ssS'upload'
p213
(dp214
S'protocol'
p215
S'arduino'
p216
sS'maximum_size'
p217
S'30720'
p218
sS'speed'
p219
S'57600'
p220
ssS'name'
p221
S'Arduino Nano w/ ATmega328'
p222
saa(lp223
S'nano'
p224
a(dp225
S'build'
p226
(dp227
S'core'
p228
S'arduino'
p229
sS'mcu'
p230
S'atmega168'
p231
sS'f_cpu'
p232
S'16000000L'
p233
sS'variant'
p234
S'eightanaloginputs'
p235
ssS'bootloader'
p236
(dp237
S'extended_fuses'
p238
S'0x00'
p239
sS'high_fuses'
p240
S'0xdd'
p241
sS'low_fuses'
p242
S'0xff'
p243
sS'lock_bits'
p244
S'0x0F'
p245
sS'file'
p246
S'ATmegaBOOT_168_diecimila.hex'
p247
sS'path'
p248
S'atmega'
p249
sS'unlock_bits'
p250
S'0x3F'
p251
ssS'upload'
p252
(dp253
S'protocol'
p254
S'arduino'
p255
sS'maximum_size'
p256
S'14336'
p257
sS'speed'
p258
S'19200'
p259
ssS'name'
p260
S'Arduino Nano w/ ATmega168'
p261
saa(lp262
S'mega2560'
p263
a(dp264
S'build'
p265
(dp266
S'core'
p267
S'arduino'
p268
sS'mcu'
p269
S'atmega2560'
p270
sS'f_cpu'
p271
S'16000000L'
p272
sS'variant'
p273
S'mega'
p274
ssS'bootloader'
p275
(dp276
S'extended_fuses'
p277
S'0xFD'
p278
sS'high_fuses'
p279
S'0xD8'
p280
sS'low_fuses'
p281
S'0xFF'
p282
sS'lock_bits'
p283
S'0x0F'
p284
sS'file'
p285
S'stk500boot_v2_mega2560.hex'
p286
sS'path'
p287
S'stk500v2'
p288
sS'unlock_bits'
p289
S'0x3F'
p290
ssS'upload'
p291
(dp292
S'protocol'
p293
S'wiring'
p294
sS'maximum_size'
p295
S'258048'
p296
sS'speed'
p297
S'115200'
p298
ssS'name'
p299
S'Arduino Mega 2560 or Mega ADK'
p300
saa(lp301
S'mega'
p302
a(dp303
S'build'
p304
(dp305
S'core'
p306
S'arduino'
p307
sS'mcu'
p308
S'atmega1280'
p309
sS'f_cpu'
p310
S'16000000L'
p311
sS'variant'
p312
S'mega'
p313
ssS'bootloader'
p314
(dp315
S'extended_fuses'
p316
S'0xF5'
p317
sS'high_fuses'
p318
S'0xDA'
p319
sS'low_fuses'
p320
S'0xFF'
p321
sS'lock_bits'
p322
S'0x0F'
p323
sS'file'
p324
S'ATmegaBOOT_168_atmega1280.hex'
p325
sS'path'
p326
S'atmega'
p327
sS'unlock_bits'
p328
S'0x3F'
p329
ssS'upload'
p330
(dp331
S'protocol'
p332
S'arduino'
p333
sS'maximum_size'
p334
S'126976'
p335
sS'speed'
p336
S'57600'
p337
ssS'name'
p338
S'Arduino Mega (ATmega1280)'
p339
saa(lp340
S'leonardo'
p341
a(dp342
S'build'
p343
(dp344
S'core'
p345
S'arduino'
p346
sS'f_cpu'
p347
S'16000000L'
p348
sS'vid'
p349
S'0x2341'
p350
sS'pid'
p351
S'0x8036'
p352
sS'variant'
p353
S'leonardo'
p354
sS'mcu'
p355
S'atmega32u4'
p356
ssS'bootloader'
p357
(dp358
S'extended_fuses'
p359
S'0xcb'
p360
sS'high_fuses'
p361
S'0xd8'
p362
sS'low_fuses'
p363
S'0xff'
p364
sS'lock_bits'
p365
S'0x2F'
p366
sS'file'
p367
S'Caterina-Leonardo.hex'
p368
sS'path'
p369
S'caterina'
p370
sS'unlock_bits'
p371
S'0x3F'
p372
ssS'upload'
p373
(dp374
S'protocol'
p375
S'avr109'
p376
sS'maximum_size'
p377
S'28672'
p378
sS'speed'
p379
S'57600'
p380
sS'disable_flushing'
p381
S'true'
p382
ssS'name'
p383
S'Arduino Leonardo'
p384
saa(lp385
S'esplora'
p386
a(dp387
S'build'
p388
(dp389
S'core'
p390
S'arduino'
p391
sS'f_cpu'
p392
S'16000000L'
p393
sS'vid'
p394
S'0x2341'
p395
sS'pid'
p396
S'0x803C'
p397
sS'variant'
p398
S'leonardo'
p399
sS'mcu'
p400
S'atmega32u4'
p401
ssS'bootloader'
p402
(dp403
S'extended_fuses'
p404
S'0xcb'
p405
sS'high_fuses'
p406
S'0xd8'
p407
sS'low_fuses'
p408
S'0xff'
p409
sS'lock_bits'
p410
S'0x2F'
p411
sS'file'
p412
S'Caterina-Esplora.hex'
p413
sS'path'
p414
S'caterina'
p415
sS'unlock_bits'
p416
S'0x3F'
p417
ssS'upload'
p418
(dp419
S'protocol'
p420
S'avr109'
p421
sS'maximum_size'
p422
S'28672'
p423
sS'speed'
p424
S'57600'
p425
sS'disable_flushing'
p426
S'true'
p427
ssS'name'
p428
S'Arduino Esplora'
p429
saa(lp430
S'micro'
p431
a(dp432
S'build'
p433
(dp434
S'core'
p435
S'arduino'
p436
sS'f_cpu'
p437
S'16000000L'
p438
sS'vid'
p439
S'0x2341'
p440
sS'pid'
p441
S'0x8037'
p442
sS'variant'
p443
S'micro'
p444
sS'mcu'
p445
S'atmega32u4'
p446
ssS'bootloader'
p447
(dp448
S'extended_fuses'
p449
S'0xcb'
p450
sS'high_fuses'
p451
S'0xd8'
p452
sS'low_fuses'
p453
S'0xff'
p454
sS'lock_bits'
p455
S'0x2F'
p456
sS'file'
p457
S'Caterina-Micro.hex'
p458
sS'path'
p459
S'caterina'
p460
sS'unlock_bits'
p461
S'0x3F'
p462
ssS'upload'
p463
(dp464
S'protocol'
p465
S'avr109'
p466
sS'maximum_size'
p467
S'28672'
p468
sS'speed'
p469
S'57600'
p470
sS'disable_flushing'
p471
S'true'
p472
ssS'name'
p473
S'Arduino Micro'
p474
saa(lp475
S'mini328'
p476
a(dp477
S'build'
p478
(dp479
S'core'
p480
S'arduino'
p481
sS'mcu'
p482
S'atmega328p'
p483
sS'f_cpu'
p484
S'16000000L'
p485
sS'variant'
p486
S'eightanaloginputs'
p487
ssS'bootloader'
p488
(dp489
S'extended_fuses'
p490
S'0x05'
p491
sS'high_fuses'
p492
S'0xd8'
p493
sS'low_fuses'
p494
S'0xff'
p495
sS'lock_bits'
p496
S'0x0F'
p497
sS'file'
p498
S'optiboot_atmega328-Mini.hex'
p499
sS'path'
p500
S'optiboot'
p501
sS'unlock_bits'
p502
S'0x3F'
p503
ssS'upload'
p504
(dp505
S'protocol'
p506
S'arduino'
p507
sS'maximum_size'
p508
S'28672'
p509
sS'speed'
p510
S'115200'
p511
ssS'name'
p512
S'Arduino Mini w/ ATmega328'
p513
saa(lp514
S'mini'
p515
a(dp516
S'build'
p517
(dp518
S'core'
p519
S'arduino'
p520
sS'mcu'
p521
S'atmega168'
p522
sS'f_cpu'
p523
S'16000000L'
p524
sS'variant'
p525
S'eightanaloginputs'
p526
ssS'bootloader'
p527
(dp528
S'extended_fuses'
p529
S'0x00'
p530
sS'high_fuses'
p531
S'0xdd'
p532
sS'low_fuses'
p533
S'0xff'
p534
sS'lock_bits'
p535
S'0x0F'
p536
sS'file'
p537
S'ATmegaBOOT_168_ng.hex'
p538
sS'path'
p539
S'atmega'
p540
sS'unlock_bits'
p541
S'0x3F'
p542
ssS'upload'
p543
(dp544
S'protocol'
p545
S'arduino'
p546
sS'maximum_size'
p547
S'14336'
p548
sS'speed'
p549
S'19200'
p550
ssS'name'
p551
S'Arduino Mini w/ ATmega168'
p552
saa(lp553
S'ethernet'
p554
a(dp555
S'build'
p556
(dp557
S'variant'
p558
S'standard'
p559
sS'mcu'
p560
S'atmega328p'
p561
sS'f_cpu'
p562
S'16000000L'
p563
sS'core'
p564
S'arduino'
p565
ssS'bootloader'
p566
(dp567
S'extended_fuses'
p568
S'0x05'
p569
sS'high_fuses'
p570
S'0xde'
p571
sS'low_fuses'
p572
S'0xff'
p573
sS'lock_bits'
p574
S'0x0F'
p575
sS'file'
p576
S'optiboot_atmega328.hex'
p577
sS'path'
p578
S'optiboot'
p579
sS'unlock_bits'
p580
S'0x3F'
p581
ssS'upload'
p582
(dp583
S'protocol'
p584
S'arduino'
p585
sS'maximum_size'
p586
S'32256'
p587
sS'speed'
p588
S'115200'
p589
ssS'name'
p590
S'Arduino Ethernet'
p591
saa(lp592
S'fio'
p593
a(dp594
S'build'
p595
(dp596
S'core'
p597
S'arduino'
p598
sS'mcu'
p599
S'atmega328p'
p600
sS'f_cpu'
p601
S'8000000L'
p602
sS'variant'
p603
S'eightanaloginputs'
p604
ssS'bootloader'
p605
(dp606
S'extended_fuses'
p607
S'0x05'
p608
sS'high_fuses'
p609
S'0xDA'
p610
sS'low_fuses'
p611
S'0xFF'
p612
sS'lock_bits'
p613
S'0x0F'
p614
sS'file'
p615
S'ATmegaBOOT_168_atmega328_pro_8MHz.hex'
p616
sS'path'
p617
S'arduino:atmega'
p618
sS'unlock_bits'
p619
S'0x3F'
p620
ssS'upload'
p621
(dp622
S'protocol'
p623
S'arduino'
p624
sS'maximum_size'
p625
S'30720'
p626
sS'speed'
p627
S'57600'
p628
ssS'name'
p629
S'Arduino Fio'
p630
saa(lp631
S'bt328'
p632
a(dp633
S'build'
p634
(dp635
S'core'
p636
S'arduino'
p637
sS'mcu'
p638
S'atmega328p'
p639
sS'f_cpu'
p640
S'16000000L'
p641
sS'variant'
p642
S'eightanaloginputs'
p643
ssS'bootloader'
p644
(dp645
S'extended_fuses'
p646
S'0x05'
p647
sS'high_fuses'
p648
S'0xd8'
p649
sS'low_fuses'
p650
S'0xff'
p651
sS'lock_bits'
p652
S'0x0F'
p653
sS'file'
p654
S'ATmegaBOOT_168_atmega328_bt.hex'
p655
sS'path'
p656
S'bt'
p657
sS'unlock_bits'
p658
S'0x3F'
p659
ssS'upload'
p660
(dp661
S'protocol'
p662
S'arduino'
p663
sS'maximum_size'
p664
S'28672'
p665
sS'speed'
p666
S'19200'
p667
sS'disable_flushing'
p668
S'true'
p669
ssS'name'
p670
S'Arduino BT w/ ATmega328'
p671
saa(lp672
S'bt'
p673
a(dp674
S'build'
p675
(dp676
S'core'
p677
S'arduino'
p678
sS'mcu'
p679
S'atmega168'
p680
sS'f_cpu'
p681
S'16000000L'
p682
sS'variant'
p683
S'eightanaloginputs'
p684
ssS'bootloader'
p685
(dp686
S'extended_fuses'
p687
S'0x00'
p688
sS'high_fuses'
p689
S'0xdd'
p690
sS'low_fuses'
p691
S'0xff'
p692
sS'lock_bits'
p693
S'0x0F'
p694
sS'file'
p695
S'ATmegaBOOT_168.hex'
p696
sS'path'
p697
S'bt'
p698
sS'unlock_bits'
p699
S'0x3F'
p700
ssS'upload'
p701
(dp702
S'protocol'
p703
S'arduino'
p704
sS'maximum_size'
p705
S'14336'
p706
sS'speed'
p707
S'19200'
p708
sS'disable_flushing'
p709
S'true'
p710
ssS'name'
p711
S'Arduino BT w/ ATmega168'
p712
saa(lp713
S'LilyPadUSB'
p714
a(dp715
S'build'
p716
(dp717
S'core'
p718
S'arduino'
p719
sS'f_cpu'
p720
S'8000000L'
p721
sS'vid'
p722
S'0x1B4F'
p723
sS'pid'
p724
S'0x9208'
p725
sS'variant'
p726
S'leonardo'
p727
sS'mcu'
p728
S'atmega32u4'
p729
ssS'bootloader'
p730
(dp731
S'extended_fuses'
p732
S'0xce'
p733
sS'high_fuses'
p734
S'0xd8'
p735
sS'low_fuses'
p736
S'0xff'
p737
sS'lock_bits'
p738
S'0x2F'
p739
sS'file'
p740
S'Caterina-LilyPadUSB.hex'
p741
sS'path'
p742
S'caterina-LilyPadUSB'
p743
sS'unlock_bits'
p744
S'0x3F'
p745
ssS'upload'
p746
(dp747
S'protocol'
p748
S'avr109'
p749
sS'maximum_size'
p750
S'28672'
p751
sS'speed'
p752
S'57600'
p753
sS'disable_flushing'
p754
S'true'
p755
ssS'name'
p756
S'LilyPad Arduino USB'
p757
saa(lp758
S'lilypad328'
p759
a(dp760
S'build'
p761
(dp762
S'core'
p763
S'arduino'
p764
sS'mcu'
p765
S'atmega328p'
p766
sS'f_cpu'
p767
S'8000000L'
p768
sS'variant'
p769
S'standard'
p770
ssS'bootloader'
p771
(dp772
S'extended_fuses'
p773
S'0x05'
p774
sS'high_fuses'
p775
S'0xDA'
p776
sS'low_fuses'
p777
S'0xFF'
p778
sS'lock_bits'
p779
S'0x0F'
p780
sS'file'
p781
S'ATmegaBOOT_168_atmega328_pro_8MHz.hex'
p782
sS'path'
p783
S'atmega'
p784
sS'unlock_bits'
p785
S'0x3F'
p786
ssS'upload'
p787
(dp788
S'protocol'
p789
S'arduino'
p790
sS'maximum_size'
p791
S'30720'
p792
sS'speed'
p793
S'57600'
p794
ssS'name'
p795
S'LilyPad Arduino w/ ATmega328'
p796
saa(lp797
S'lilypad'
p798
a(dp799
S'build'
p800
(dp801
S'core'
p802
S'arduino'
p803
sS'mcu'
p804
S'atmega168'
p805
sS'f_cpu'
p806
S'8000000L'
p807
sS'variant'
p808
S'standard'
p809
ssS'bootloader'
p810
(dp811
S'extended_fuses'
p812
S'0x00'
p813
sS'high_fuses'
p814
S'0xdd'
p815
sS'low_fuses'
p816
S'0xe2'
p817
sS'lock_bits'
p818
S'0x0F'
p819
sS'file'
p820
S'LilyPadBOOT_168.hex'
p821
sS'path'
p822
S'lilypad'
p823
sS'unlock_bits'
p824
S'0x3F'
p825
ssS'upload'
p826
(dp827
S'protocol'
p828
S'arduino'
p829
sS'maximum_size'
p830
S'14336'
p831
sS'speed'
p832
S'19200'
p833
ssS'name'
p834
S'LilyPad Arduino w/ ATmega168'
p835
saa(lp836
S'pro5v328'
p837
a(dp838
S'build'
p839
(dp840
S'core'
p841
S'arduino'
p842
sS'mcu'
p843
S'atmega328p'
p844
sS'f_cpu'
p845
S'16000000L'
p846
sS'variant'
p847
S'standard'
p848
ssS'bootloader'
p849
(dp850
S'extended_fuses'
p851
S'0x05'
p852
sS'high_fuses'
p853
S'0xDA'
p854
sS'low_fuses'
p855
S'0xFF'
p856
sS'lock_bits'
p857
S'0x0F'
p858
sS'file'
p859
S'ATmegaBOOT_168_atmega328.hex'
p860
sS'path'
p861
S'atmega'
p862
sS'unlock_bits'
p863
S'0x3F'
p864
ssS'upload'
p865
(dp866
S'protocol'
p867
S'arduino'
p868
sS'maximum_size'
p869
S'30720'
p870
sS'speed'
p871
S'57600'
p872
ssS'name'
p873
S'Arduino Pro or Pro Mini (5V, 16 MHz) w/ ATmega328'
p874
saa(lp875
S'pro5v'
p876
a(dp877
S'build'
p878
(dp879
S'core'
p880
S'arduino'
p881
sS'mcu'
p882
S'atmega168'
p883
sS'f_cpu'
p884
S'16000000L'
p885
sS'variant'
p886
S'standard'
p887
ssS'bootloader'
p888
(dp889
S'extended_fuses'
p890
S'0x00'
p891
sS'high_fuses'
p892
S'0xdd'
p893
sS'low_fuses'
p894
S'0xff'
p895
sS'lock_bits'
p896
S'0x0F'
p897
sS'file'
p898
S'ATmegaBOOT_168_diecimila.hex'
p899
sS'path'
p900
S'atmega'
p901
sS'unlock_bits'
p902
S'0x3F'
p903
ssS'upload'
p904
(dp905
S'protocol'
p906
S'arduino'
p907
sS'maximum_size'
p908
S'14336'
p909
sS'speed'
p910
S'19200'
p911
ssS'name'
p912
S'Arduino Pro or Pro Mini (5V, 16 MHz) w/ ATmega168'
p913
saa(lp914
S'pro328'
p915
a(dp916
S'build'
p917
(dp918
S'core'
p919
S'arduino'
p920
sS'mcu'
p921
S'atmega328p'
p922
sS'f_cpu'
p923
S'8000000L'
p924
sS'variant'
p925
S'standard'
p926
ssS'bootloader'
p927
(dp928
S'extended_fuses'
p929
S'0x05'
p930
sS'high_fuses'
p931
S'0xDA'
p932
sS'low_fuses'
p933
S'0xFF'
p934
sS'lock_bits'
p935
S'0x0F'
p936
sS'file'
p937
S'ATmegaBOOT_168_atmega328_pro_8MHz.hex'
p938
sS'path'
p939
S'atmega'
p940
sS'unlock_bits'
p941
S'0x3F'
p942
ssS'upload'
p943
(dp944
S'protocol'
p945
S'arduino'
p946
sS'maximum_size'
p947
S'30720'
p948
sS'speed'
p949
S'57600'
p950
ssS'name'
p951
S'Arduino Pro or Pro Mini (3.3V, 8 MHz) w/ ATmega328'
p952
saa(lp953
S'pro'
p954
a(dp955
S'build'
p956
(dp957
S'core'
p958
S'arduino'
p959
sS'mcu'
p960
S'atmega168'
p961
sS'f_cpu'
p962
S'8000000L'
p963
sS'variant'
p964
S'standard'
p965
ssS'bootloader'
p966
(dp967
S'extended_fuses'
p968
S'0x00'
p969
sS'high_fuses'
p970
S'0xdd'
p971
sS'low_fuses'
p972
S'0xc6'
p973
sS'lock_bits'
p974
S'0x0F'
p975
sS'file'
p976
S'ATmegaBOOT_168_pro_8MHz.hex'
p977
sS'path'
p978
S'atmega'
p979
sS'unlock_bits'
p980
S'0x3F'
p981
ssS'upload'
p982
(dp983
S'protocol'
p984
S'arduino'
p985
sS'maximum_size'
p986
S'14336'
p987
sS'speed'
p988
S'19200'
p989
ssS'name'
p990
S'Arduino Pro or Pro Mini (3.3V, 8 MHz) w/ ATmega168'
p991
saa(lp992
S'atmega168'
p993
a(dp994
S'build'
p995
(dp996
S'core'
p997
S'arduino'
p998
sS'mcu'
p999
S'atmega168'
p1000
sS'f_cpu'
p1001
S'16000000L'
p1002
sS'variant'
p1003
S'standard'
p1004
ssS'bootloader'
p1005
(dp1006
S'extended_fuses'
p1007
S'0x00'
p1008
sS'high_fuses'
p1009
S'0xdd'
p1010
sS'low_fuses'
p1011
S'0xff'
p1012
sS'lock_bits'
p1013
S'0x0F'
p1014
sS'file'
p1015
S'ATmegaBOOT_168_ng.hex'
p1016
sS'path'
p1017
S'atmega'
p1018
sS'unlock_bits'
p1019
S'0x3F'
p1020
ssS'upload'
p1021
(dp1022
S'protocol'
p1023
S'arduino'
p1024
sS'maximum_size'
p1025
S'14336'
p1026
sS'speed'
p1027
S'19200'
p1028
ssS'name'
p1029
S'Arduino NG or older w/ ATmega168'
p1030
saa(lp1031
S'atmega8'
p1032
a(dp1033
S'build'
p1034
(dp1035
S'core'
p1036
S'arduino'
p1037
sS'mcu'
p1038
S'atmega8'
p1039
sS'f_cpu'
p1040
S'16000000L'
p1041
sS'variant'
p1042
S'standard'
p1043
ssS'bootloader'
p1044
(dp1045
S'high_fuses'
p1046
S'0xca'
p1047
sS'low_fuses'
p1048
S'0xdf'
p1049
sS'lock_bits'
p1050
S'0x0F'
p1051
sS'file'
p1052
S'ATmegaBOOT-prod-firmware-2009-11-07.hex'
p1053
sS'path'
p1054
S'atmega8'
p1055
sS'unlock_bits'
p1056
S'0x3F'
p1057
ssS'upload'
p1058
(dp1059
S'protocol'
p1060
S'arduino'
p1061
sS'maximum_size'
p1062
S'7168'
p1063
sS'speed'
p1064
S'19200'
p1065
ssS'name'
p1066
S'Arduino NG or older w/ ATmega8'
p1067
saa(lp1068
S'robotControl'
p1069
a(dp1070
S'build'
p1071
(dp1072
S'core'
p1073
S'robot'
p1074
sS'f_cpu'
p1075
S'16000000L'
p1076
sS'vid'
p1077
S'0x2341'
p1078
sS'pid'
p1079
S'0x8038'
p1080
sS'variant'
p1081
S'robot_control'
p1082
sS'mcu'
p1083
S'atmega32u4'
p1084
ssS'bootloader'
p1085
(dp1086
S'extended_fuses'
p1087
S'0xcb'
p1088
sS'high_fuses'
p1089
S'0xd8'
p1090
sS'low_fuses'
p1091
S'0xff'
p1092
sS'lock_bits'
p1093
S'0x2F'
p1094
sS'file'
p1095
S'Caterina-Robot-Control.hex'
p1096
sS'path'
p1097
S'caterina-Arduino_Robot'
p1098
sS'unlock_bits'
p1099
S'0x3F'
p1100
ssS'upload'
p1101
(dp1102
S'protocol'
p1103
S'avr109'
p1104
sS'maximum_size'
p1105
S'28672'
p1106
sS'speed'
p1107
S'57600'
p1108
sS'disable_flushing'
p1109
S'true'
p1110
ssS'name'
p1111
S'Arduino Robot Control'
p1112
saa(lp1113
S'robotMotor'
p1114
a(dp1115
S'build'
p1116
(dp1117
S'core'
p1118
S'robot'
p1119
sS'f_cpu'
p1120
S'16000000L'
p1121
sS'vid'
p1122
S'0x2341'
p1123
sS'pid'
p1124
S'0x8039'
p1125
sS'variant'
p1126
S'robot_motor'
p1127
sS'mcu'
p1128
S'atmega32u4'
p1129
ssS'bootloader'
p1130
(dp1131
S'extended_fuses'
p1132
S'0xcb'
p1133
sS'high_fuses'
p1134
S'0xd8'
p1135
sS'low_fuses'
p1136
S'0xff'
p1137
sS'lock_bits'
p1138
S'0x2F'
p1139
sS'file'
p1140
S'Caterina-Robot-Motor.hex'
p1141
sS'path'
p1142
S'caterina-Arduino_Robot'
p1143
sS'unlock_bits'
p1144
S'0x3F'
p1145
ssS'upload'
p1146
(dp1147
S'protocol'
p1148
S'avr109'
p1149
sS'maximum_size'
p1150
S'28672'
p1151
sS'speed'
p1152
S'57600'
p1153
sS'disable_flushing'
p1154
S'true'
p1155
ssS'name'
p1156
S'Arduino Robot Motor'
p1157
saatp1158
Rp1159
(dp1160
S'default'
p1161
S'uno'
p1162
sbtp1163
a(S'used_libs'
p1164
(lp1165
S'/usr/share/arduino/libraries/VirtualWire'
p1166
aS'/usr/share/arduino/hardware/arduino/cores/arduino'
p1167
atp1168
a(S'make'
p1169
S'/usr/share/arduino/hardware/tools/avr/bin/make'
p1170
tp1171
a(S'build_dir'
p1172
S'.build/nano328'
p1173
tp1174
a(S'cc'
p1175
S'/usr/share/arduino/hardware/tools/avr/bin/avr-gcc'
p1176
tp1177
a(S'cflags'
p1178
g2
(g3
g4
(lp1179
tp1180
Rp1181
tp1182
a(S'cxxflags'
p1183
g2
(g3
g4
(lp1184
S'-fno-exceptions'
p1185
atp1186
Rp1187
tp1188
a(S'arduino_variants_dir'
p1189
S'/usr/share/arduino/hardware/arduino/variants'
p1190
tp1191
a(S'stty'
p1192
S'/bin/stty'
p1193
tp1194
a(S'version.txt'
p1195
S'/usr/share/arduino/lib/version.txt'
p1196
tp1197
a(S'arduino_core_dir'
p1198
g1167
tp1199
a(S'boards.txt'
p1200
S'/usr/share/arduino/hardware/arduino/boards.txt'
p1201
tp1202
a(S'avrdude.conf'
p1203
S'/usr/share/arduino/hardware/tools/avrdude.conf'
p1204
tp1205
a(S'deps'
p1206
g2
(g3
g4
(lp1207
S'.build/nano328/src/dependencies.d'
p1208
aS'.build/nano328/arduino/dependencies.d'
p1209
aS'.build/nano328/VirtualWire/dependencies.d'
p1210
atp1211
Rp1212
tp1213
a.