(lp0
(S'cppflags'
p1
ccopy_reg
_reconstructor
p2
(cino.utils
SpaceList
p3
c__builtin__
list
p4
(lp5
S'-mmcu=atmega32u4'
p6
aS'-DF_CPU=16000000L'
p7
aS'-DARDUINO=105'
p8
aS'-I/usr/share/arduino/hardware/arduino/cores/arduino'
p9
aS'-ffunction-sections'
p10
aS'-fdata-sections'
p11
aS'-g'
p12
aS'-Os'
p13
aS'-w'
p14
aS'-DUSB_VID=0x2341'
p15
aS'-DUSB_PID=0x8036'
p16
aS'-I/usr/share/arduino/hardware/arduino/variants/leonardo'
p17
aS'-I/usr/share/arduino/libraries/VirtualWire'
p18
aS'-I/usr/share/arduino/libraries/VirtualWire/util'
p19
aS'-I/usr/share/arduino/libraries/VirtualWire/doc'
p20
aS'-Ilib/VirtualWire'
p21
aS'-I/usr/share/arduino/hardware/arduino/cores/arduino'
p22
aS'-I/usr/share/arduino/hardware/arduino/cores/arduino/avr-libc'
p23
atp24
Rp25
tp26
a(S'version.txt'
p27
S'/usr/share/arduino/lib/version.txt'
p28
tp29
a(S'used_libs'
p30
(lp31
S'/usr/share/arduino/libraries/VirtualWire'
p32
aS'lib/VirtualWire'
p33
aS'/usr/share/arduino/hardware/arduino/cores/arduino'
p34
atp35
a(S'cc'
p36
S'/usr/share/arduino/hardware/tools/avr/bin/avr-gcc'
p37
tp38
a(S'make'
p39
S'/usr/share/arduino/hardware/tools/avr/bin/make'
p40
tp41
a(S'build_dir'
p42
S'.build/leonardo'
p43
tp44
a(S'arduino_core_dir'
p45
g34
tp46
a(S'boards.txt'
p47
S'/usr/share/arduino/hardware/arduino/boards.txt'
p48
tp49
a(S'cxxflags'
p50
g2
(g3
g4
(lp51
S'-fno-exceptions'
p52
atp53
Rp54
tp55
a(S'arduino_variants_dir'
p56
S'/usr/share/arduino/hardware/arduino/variants'
p57
tp58
a(S'deps'
p59
g2
(g3
g4
(lp60
S'.build/leonardo/src/dependencies.d'
p61
aS'.build/leonardo/arduino/dependencies.d'
p62
aS'.build/leonardo/VirtualWire/dependencies.d'
p63
aS'.build/leonardo/VirtualWire/dependencies.d'
p64
atp65
Rp66
tp67
a(S'ar'
p68
S'/usr/share/arduino/hardware/tools/avr/bin/avr-ar'
p69
tp70
a(S'names'
p71
(dp72
S'cpp'
p73
S'%s.cpp'
p74
sS'obj'
p75
S'%s.o'
p76
sg59
S'%s.d'
p77
sS'lib'
p78
S'lib%s.a'
p79
stp80
a(S'cflags'
p81
g2
(g3
g4
(lp82
tp83
Rp84
tp85
a(S'ldflags'
p86
g2
(g3
g4
(lp87
g6
aS'-Wl,-Os'
p88
aS'-Wl,--gc-sections'
p89
atp90
Rp91
tp92
a(S'arduino_libraries_dir'
p93
S'/usr/share/arduino/libraries'
p94
tp95
a(S'arduino_lib_version'
p96
g2
(cino.environment
Version
p97
c__builtin__
tuple
p98
(I1
I0
I5
tp99
tp100
Rp101
tp102
a(S'objcopy'
p103
S'/usr/share/arduino/hardware/tools/avr/bin/avr-objcopy'
p104
tp105
a(S'board_models'
p106
cino.environment
BoardModels
p107
((lp108
(lp109
S'uno'
p110
a(dp111
S'build'
p112
(dp113
S'core'
p114
S'arduino'
p115
sS'mcu'
p116
S'atmega328p'
p117
sS'f_cpu'
p118
S'16000000L'
p119
sS'variant'
p120
S'standard'
p121
ssS'bootloader'
p122
(dp123
S'extended_fuses'
p124
S'0x05'
p125
sS'high_fuses'
p126
S'0xde'
p127
sS'low_fuses'
p128
S'0xff'
p129
sS'lock_bits'
p130
S'0x0F'
p131
sS'file'
p132
S'optiboot_atmega328.hex'
p133
sS'path'
p134
S'optiboot'
p135
sS'unlock_bits'
p136
S'0x3F'
p137
ssS'name'
p138
S'Arduino Uno'
p139
sS'upload'
p140
(dp141
S'speed'
p142
S'115200'
p143
sS'maximum_size'
p144
S'32256'
p145
sS'protocol'
p146
S'arduino'
p147
ssaa(lp148
S'atmega328'
p149
a(dp150
S'build'
p151
(dp152
S'core'
p153
S'arduino'
p154
sS'mcu'
p155
S'atmega328p'
p156
sS'f_cpu'
p157
S'16000000L'
p158
sS'variant'
p159
S'standard'
p160
ssS'bootloader'
p161
(dp162
S'extended_fuses'
p163
S'0x05'
p164
sS'high_fuses'
p165
S'0xDA'
p166
sS'low_fuses'
p167
S'0xFF'
p168
sS'lock_bits'
p169
S'0x0F'
p170
sS'file'
p171
S'ATmegaBOOT_168_atmega328.hex'
p172
sS'path'
p173
S'atmega'
p174
sS'unlock_bits'
p175
S'0x3F'
p176
ssS'name'
p177
S'Arduino Duemilanove w/ ATmega328'
p178
sS'upload'
p179
(dp180
S'speed'
p181
S'57600'
p182
sS'maximum_size'
p183
S'30720'
p184
sS'protocol'
p185
S'arduino'
p186
ssaa(lp187
S'diecimila'
p188
a(dp189
S'build'
p190
(dp191
S'core'
p192
S'arduino'
p193
sS'mcu'
p194
S'atmega168'
p195
sS'f_cpu'
p196
S'16000000L'
p197
sS'variant'
p198
S'standard'
p199
ssS'bootloader'
p200
(dp201
S'extended_fuses'
p202
S'0x00'
p203
sS'high_fuses'
p204
S'0xdd'
p205
sS'low_fuses'
p206
S'0xff'
p207
sS'lock_bits'
p208
S'0x0F'
p209
sS'file'
p210
S'ATmegaBOOT_168_diecimila.hex'
p211
sS'path'
p212
S'atmega'
p213
sS'unlock_bits'
p214
S'0x3F'
p215
ssS'name'
p216
S'Arduino Diecimila or Duemilanove w/ ATmega168'
p217
sS'upload'
p218
(dp219
S'speed'
p220
S'19200'
p221
sS'maximum_size'
p222
S'14336'
p223
sS'protocol'
p224
S'arduino'
p225
ssaa(lp226
S'nano328'
p227
a(dp228
S'build'
p229
(dp230
S'core'
p231
S'arduino'
p232
sS'mcu'
p233
S'atmega328p'
p234
sS'f_cpu'
p235
S'16000000L'
p236
sS'variant'
p237
S'eightanaloginputs'
p238
ssS'bootloader'
p239
(dp240
S'extended_fuses'
p241
S'0x05'
p242
sS'high_fuses'
p243
S'0xDA'
p244
sS'low_fuses'
p245
S'0xFF'
p246
sS'lock_bits'
p247
S'0x0F'
p248
sS'file'
p249
S'ATmegaBOOT_168_atmega328.hex'
p250
sS'path'
p251
S'atmega'
p252
sS'unlock_bits'
p253
S'0x3F'
p254
ssS'name'
p255
S'Arduino Nano w/ ATmega328'
p256
sS'upload'
p257
(dp258
S'speed'
p259
S'57600'
p260
sS'maximum_size'
p261
S'30720'
p262
sS'protocol'
p263
S'arduino'
p264
ssaa(lp265
S'nano'
p266
a(dp267
S'build'
p268
(dp269
S'core'
p270
S'arduino'
p271
sS'mcu'
p272
S'atmega168'
p273
sS'f_cpu'
p274
S'16000000L'
p275
sS'variant'
p276
S'eightanaloginputs'
p277
ssS'bootloader'
p278
(dp279
S'extended_fuses'
p280
S'0x00'
p281
sS'high_fuses'
p282
S'0xdd'
p283
sS'low_fuses'
p284
S'0xff'
p285
sS'lock_bits'
p286
S'0x0F'
p287
sS'file'
p288
S'ATmegaBOOT_168_diecimila.hex'
p289
sS'path'
p290
S'atmega'
p291
sS'unlock_bits'
p292
S'0x3F'
p293
ssS'name'
p294
S'Arduino Nano w/ ATmega168'
p295
sS'upload'
p296
(dp297
S'speed'
p298
S'19200'
p299
sS'maximum_size'
p300
S'14336'
p301
sS'protocol'
p302
S'arduino'
p303
ssaa(lp304
S'mega2560'
p305
a(dp306
S'build'
p307
(dp308
S'core'
p309
S'arduino'
p310
sS'mcu'
p311
S'atmega2560'
p312
sS'f_cpu'
p313
S'16000000L'
p314
sS'variant'
p315
S'mega'
p316
ssS'bootloader'
p317
(dp318
S'extended_fuses'
p319
S'0xFD'
p320
sS'high_fuses'
p321
S'0xD8'
p322
sS'low_fuses'
p323
S'0xFF'
p324
sS'lock_bits'
p325
S'0x0F'
p326
sS'file'
p327
S'stk500boot_v2_mega2560.hex'
p328
sS'path'
p329
S'stk500v2'
p330
sS'unlock_bits'
p331
S'0x3F'
p332
ssS'name'
p333
S'Arduino Mega 2560 or Mega ADK'
p334
sS'upload'
p335
(dp336
S'speed'
p337
S'115200'
p338
sS'maximum_size'
p339
S'258048'
p340
sS'protocol'
p341
S'wiring'
p342
ssaa(lp343
S'mega'
p344
a(dp345
S'build'
p346
(dp347
S'core'
p348
S'arduino'
p349
sS'mcu'
p350
S'atmega1280'
p351
sS'f_cpu'
p352
S'16000000L'
p353
sS'variant'
p354
S'mega'
p355
ssS'bootloader'
p356
(dp357
S'extended_fuses'
p358
S'0xF5'
p359
sS'high_fuses'
p360
S'0xDA'
p361
sS'low_fuses'
p362
S'0xFF'
p363
sS'lock_bits'
p364
S'0x0F'
p365
sS'file'
p366
S'ATmegaBOOT_168_atmega1280.hex'
p367
sS'path'
p368
S'atmega'
p369
sS'unlock_bits'
p370
S'0x3F'
p371
ssS'name'
p372
S'Arduino Mega (ATmega1280)'
p373
sS'upload'
p374
(dp375
S'speed'
p376
S'57600'
p377
sS'maximum_size'
p378
S'126976'
p379
sS'protocol'
p380
S'arduino'
p381
ssaa(lp382
S'leonardo'
p383
a(dp384
S'build'
p385
(dp386
S'core'
p387
S'arduino'
p388
sS'f_cpu'
p389
S'16000000L'
p390
sS'vid'
p391
S'0x2341'
p392
sS'pid'
p393
S'0x8036'
p394
sS'variant'
p395
S'leonardo'
p396
sS'mcu'
p397
S'atmega32u4'
p398
ssS'bootloader'
p399
(dp400
S'extended_fuses'
p401
S'0xcb'
p402
sS'high_fuses'
p403
S'0xd8'
p404
sS'low_fuses'
p405
S'0xff'
p406
sS'lock_bits'
p407
S'0x2F'
p408
sS'file'
p409
S'Caterina-Leonardo.hex'
p410
sS'path'
p411
S'caterina'
p412
sS'unlock_bits'
p413
S'0x3F'
p414
ssS'name'
p415
S'Arduino Leonardo'
p416
sS'upload'
p417
(dp418
S'speed'
p419
S'57600'
p420
sS'maximum_size'
p421
S'28672'
p422
sS'protocol'
p423
S'avr109'
p424
sS'disable_flushing'
p425
S'true'
p426
ssaa(lp427
S'esplora'
p428
a(dp429
S'build'
p430
(dp431
S'core'
p432
S'arduino'
p433
sS'f_cpu'
p434
S'16000000L'
p435
sS'vid'
p436
S'0x2341'
p437
sS'pid'
p438
S'0x803C'
p439
sS'variant'
p440
S'leonardo'
p441
sS'mcu'
p442
S'atmega32u4'
p443
ssS'bootloader'
p444
(dp445
S'extended_fuses'
p446
S'0xcb'
p447
sS'high_fuses'
p448
S'0xd8'
p449
sS'low_fuses'
p450
S'0xff'
p451
sS'lock_bits'
p452
S'0x2F'
p453
sS'file'
p454
S'Caterina-Esplora.hex'
p455
sS'path'
p456
S'caterina'
p457
sS'unlock_bits'
p458
S'0x3F'
p459
ssS'name'
p460
S'Arduino Esplora'
p461
sS'upload'
p462
(dp463
S'speed'
p464
S'57600'
p465
sS'maximum_size'
p466
S'28672'
p467
sS'protocol'
p468
S'avr109'
p469
sS'disable_flushing'
p470
S'true'
p471
ssaa(lp472
S'micro'
p473
a(dp474
S'build'
p475
(dp476
S'core'
p477
S'arduino'
p478
sS'f_cpu'
p479
S'16000000L'
p480
sS'vid'
p481
S'0x2341'
p482
sS'pid'
p483
S'0x8037'
p484
sS'variant'
p485
S'micro'
p486
sS'mcu'
p487
S'atmega32u4'
p488
ssS'bootloader'
p489
(dp490
S'extended_fuses'
p491
S'0xcb'
p492
sS'high_fuses'
p493
S'0xd8'
p494
sS'low_fuses'
p495
S'0xff'
p496
sS'lock_bits'
p497
S'0x2F'
p498
sS'file'
p499
S'Caterina-Micro.hex'
p500
sS'path'
p501
S'caterina'
p502
sS'unlock_bits'
p503
S'0x3F'
p504
ssS'name'
p505
S'Arduino Micro'
p506
sS'upload'
p507
(dp508
S'speed'
p509
S'57600'
p510
sS'maximum_size'
p511
S'28672'
p512
sS'protocol'
p513
S'avr109'
p514
sS'disable_flushing'
p515
S'true'
p516
ssaa(lp517
S'mini328'
p518
a(dp519
S'build'
p520
(dp521
S'core'
p522
S'arduino'
p523
sS'mcu'
p524
S'atmega328p'
p525
sS'f_cpu'
p526
S'16000000L'
p527
sS'variant'
p528
S'eightanaloginputs'
p529
ssS'bootloader'
p530
(dp531
S'extended_fuses'
p532
S'0x05'
p533
sS'high_fuses'
p534
S'0xd8'
p535
sS'low_fuses'
p536
S'0xff'
p537
sS'lock_bits'
p538
S'0x0F'
p539
sS'file'
p540
S'optiboot_atmega328-Mini.hex'
p541
sS'path'
p542
S'optiboot'
p543
sS'unlock_bits'
p544
S'0x3F'
p545
ssS'name'
p546
S'Arduino Mini w/ ATmega328'
p547
sS'upload'
p548
(dp549
S'speed'
p550
S'115200'
p551
sS'maximum_size'
p552
S'28672'
p553
sS'protocol'
p554
S'arduino'
p555
ssaa(lp556
S'mini'
p557
a(dp558
S'build'
p559
(dp560
S'core'
p561
S'arduino'
p562
sS'mcu'
p563
S'atmega168'
p564
sS'f_cpu'
p565
S'16000000L'
p566
sS'variant'
p567
S'eightanaloginputs'
p568
ssS'bootloader'
p569
(dp570
S'extended_fuses'
p571
S'0x00'
p572
sS'high_fuses'
p573
S'0xdd'
p574
sS'low_fuses'
p575
S'0xff'
p576
sS'lock_bits'
p577
S'0x0F'
p578
sS'file'
p579
S'ATmegaBOOT_168_ng.hex'
p580
sS'path'
p581
S'atmega'
p582
sS'unlock_bits'
p583
S'0x3F'
p584
ssS'name'
p585
S'Arduino Mini w/ ATmega168'
p586
sS'upload'
p587
(dp588
S'speed'
p589
S'19200'
p590
sS'maximum_size'
p591
S'14336'
p592
sS'protocol'
p593
S'arduino'
p594
ssaa(lp595
S'ethernet'
p596
a(dp597
S'build'
p598
(dp599
S'f_cpu'
p600
S'16000000L'
p601
sS'mcu'
p602
S'atmega328p'
p603
sS'variant'
p604
S'standard'
p605
sS'core'
p606
S'arduino'
p607
ssS'bootloader'
p608
(dp609
S'extended_fuses'
p610
S'0x05'
p611
sS'high_fuses'
p612
S'0xde'
p613
sS'low_fuses'
p614
S'0xff'
p615
sS'lock_bits'
p616
S'0x0F'
p617
sS'file'
p618
S'optiboot_atmega328.hex'
p619
sS'path'
p620
S'optiboot'
p621
sS'unlock_bits'
p622
S'0x3F'
p623
ssS'name'
p624
S'Arduino Ethernet'
p625
sS'upload'
p626
(dp627
S'speed'
p628
S'115200'
p629
sS'maximum_size'
p630
S'32256'
p631
sS'protocol'
p632
S'arduino'
p633
ssaa(lp634
S'fio'
p635
a(dp636
S'build'
p637
(dp638
S'core'
p639
S'arduino'
p640
sS'mcu'
p641
S'atmega328p'
p642
sS'f_cpu'
p643
S'8000000L'
p644
sS'variant'
p645
S'eightanaloginputs'
p646
ssS'bootloader'
p647
(dp648
S'extended_fuses'
p649
S'0x05'
p650
sS'high_fuses'
p651
S'0xDA'
p652
sS'low_fuses'
p653
S'0xFF'
p654
sS'lock_bits'
p655
S'0x0F'
p656
sS'file'
p657
S'ATmegaBOOT_168_atmega328_pro_8MHz.hex'
p658
sS'path'
p659
S'arduino:atmega'
p660
sS'unlock_bits'
p661
S'0x3F'
p662
ssS'name'
p663
S'Arduino Fio'
p664
sS'upload'
p665
(dp666
S'speed'
p667
S'57600'
p668
sS'maximum_size'
p669
S'30720'
p670
sS'protocol'
p671
S'arduino'
p672
ssaa(lp673
S'bt328'
p674
a(dp675
S'build'
p676
(dp677
S'core'
p678
S'arduino'
p679
sS'mcu'
p680
S'atmega328p'
p681
sS'f_cpu'
p682
S'16000000L'
p683
sS'variant'
p684
S'eightanaloginputs'
p685
ssS'bootloader'
p686
(dp687
S'extended_fuses'
p688
S'0x05'
p689
sS'high_fuses'
p690
S'0xd8'
p691
sS'low_fuses'
p692
S'0xff'
p693
sS'lock_bits'
p694
S'0x0F'
p695
sS'file'
p696
S'ATmegaBOOT_168_atmega328_bt.hex'
p697
sS'path'
p698
S'bt'
p699
sS'unlock_bits'
p700
S'0x3F'
p701
ssS'name'
p702
S'Arduino BT w/ ATmega328'
p703
sS'upload'
p704
(dp705
S'speed'
p706
S'19200'
p707
sS'maximum_size'
p708
S'28672'
p709
sS'protocol'
p710
S'arduino'
p711
sS'disable_flushing'
p712
S'true'
p713
ssaa(lp714
S'bt'
p715
a(dp716
S'build'
p717
(dp718
S'core'
p719
S'arduino'
p720
sS'mcu'
p721
S'atmega168'
p722
sS'f_cpu'
p723
S'16000000L'
p724
sS'variant'
p725
S'eightanaloginputs'
p726
ssS'bootloader'
p727
(dp728
S'extended_fuses'
p729
S'0x00'
p730
sS'high_fuses'
p731
S'0xdd'
p732
sS'low_fuses'
p733
S'0xff'
p734
sS'lock_bits'
p735
S'0x0F'
p736
sS'file'
p737
S'ATmegaBOOT_168.hex'
p738
sS'path'
p739
S'bt'
p740
sS'unlock_bits'
p741
S'0x3F'
p742
ssS'name'
p743
S'Arduino BT w/ ATmega168'
p744
sS'upload'
p745
(dp746
S'speed'
p747
S'19200'
p748
sS'maximum_size'
p749
S'14336'
p750
sS'protocol'
p751
S'arduino'
p752
sS'disable_flushing'
p753
S'true'
p754
ssaa(lp755
S'LilyPadUSB'
p756
a(dp757
S'build'
p758
(dp759
S'core'
p760
S'arduino'
p761
sS'f_cpu'
p762
S'8000000L'
p763
sS'vid'
p764
S'0x1B4F'
p765
sS'pid'
p766
S'0x9208'
p767
sS'variant'
p768
S'leonardo'
p769
sS'mcu'
p770
S'atmega32u4'
p771
ssS'bootloader'
p772
(dp773
S'extended_fuses'
p774
S'0xce'
p775
sS'high_fuses'
p776
S'0xd8'
p777
sS'low_fuses'
p778
S'0xff'
p779
sS'lock_bits'
p780
S'0x2F'
p781
sS'file'
p782
S'Caterina-LilyPadUSB.hex'
p783
sS'path'
p784
S'caterina-LilyPadUSB'
p785
sS'unlock_bits'
p786
S'0x3F'
p787
ssS'name'
p788
S'LilyPad Arduino USB'
p789
sS'upload'
p790
(dp791
S'speed'
p792
S'57600'
p793
sS'maximum_size'
p794
S'28672'
p795
sS'protocol'
p796
S'avr109'
p797
sS'disable_flushing'
p798
S'true'
p799
ssaa(lp800
S'lilypad328'
p801
a(dp802
S'build'
p803
(dp804
S'core'
p805
S'arduino'
p806
sS'mcu'
p807
S'atmega328p'
p808
sS'f_cpu'
p809
S'8000000L'
p810
sS'variant'
p811
S'standard'
p812
ssS'bootloader'
p813
(dp814
S'extended_fuses'
p815
S'0x05'
p816
sS'high_fuses'
p817
S'0xDA'
p818
sS'low_fuses'
p819
S'0xFF'
p820
sS'lock_bits'
p821
S'0x0F'
p822
sS'file'
p823
S'ATmegaBOOT_168_atmega328_pro_8MHz.hex'
p824
sS'path'
p825
S'atmega'
p826
sS'unlock_bits'
p827
S'0x3F'
p828
ssS'name'
p829
S'LilyPad Arduino w/ ATmega328'
p830
sS'upload'
p831
(dp832
S'speed'
p833
S'57600'
p834
sS'maximum_size'
p835
S'30720'
p836
sS'protocol'
p837
S'arduino'
p838
ssaa(lp839
S'lilypad'
p840
a(dp841
S'build'
p842
(dp843
S'core'
p844
S'arduino'
p845
sS'mcu'
p846
S'atmega168'
p847
sS'f_cpu'
p848
S'8000000L'
p849
sS'variant'
p850
S'standard'
p851
ssS'bootloader'
p852
(dp853
S'extended_fuses'
p854
S'0x00'
p855
sS'high_fuses'
p856
S'0xdd'
p857
sS'low_fuses'
p858
S'0xe2'
p859
sS'lock_bits'
p860
S'0x0F'
p861
sS'file'
p862
S'LilyPadBOOT_168.hex'
p863
sS'path'
p864
S'lilypad'
p865
sS'unlock_bits'
p866
S'0x3F'
p867
ssS'name'
p868
S'LilyPad Arduino w/ ATmega168'
p869
sS'upload'
p870
(dp871
S'speed'
p872
S'19200'
p873
sS'maximum_size'
p874
S'14336'
p875
sS'protocol'
p876
S'arduino'
p877
ssaa(lp878
S'pro5v328'
p879
a(dp880
S'build'
p881
(dp882
S'core'
p883
S'arduino'
p884
sS'mcu'
p885
S'atmega328p'
p886
sS'f_cpu'
p887
S'16000000L'
p888
sS'variant'
p889
S'standard'
p890
ssS'bootloader'
p891
(dp892
S'extended_fuses'
p893
S'0x05'
p894
sS'high_fuses'
p895
S'0xDA'
p896
sS'low_fuses'
p897
S'0xFF'
p898
sS'lock_bits'
p899
S'0x0F'
p900
sS'file'
p901
S'ATmegaBOOT_168_atmega328.hex'
p902
sS'path'
p903
S'atmega'
p904
sS'unlock_bits'
p905
S'0x3F'
p906
ssS'name'
p907
S'Arduino Pro or Pro Mini (5V, 16 MHz) w/ ATmega328'
p908
sS'upload'
p909
(dp910
S'speed'
p911
S'57600'
p912
sS'maximum_size'
p913
S'30720'
p914
sS'protocol'
p915
S'arduino'
p916
ssaa(lp917
S'pro5v'
p918
a(dp919
S'build'
p920
(dp921
S'core'
p922
S'arduino'
p923
sS'mcu'
p924
S'atmega168'
p925
sS'f_cpu'
p926
S'16000000L'
p927
sS'variant'
p928
S'standard'
p929
ssS'bootloader'
p930
(dp931
S'extended_fuses'
p932
S'0x00'
p933
sS'high_fuses'
p934
S'0xdd'
p935
sS'low_fuses'
p936
S'0xff'
p937
sS'lock_bits'
p938
S'0x0F'
p939
sS'file'
p940
S'ATmegaBOOT_168_diecimila.hex'
p941
sS'path'
p942
S'atmega'
p943
sS'unlock_bits'
p944
S'0x3F'
p945
ssS'name'
p946
S'Arduino Pro or Pro Mini (5V, 16 MHz) w/ ATmega168'
p947
sS'upload'
p948
(dp949
S'speed'
p950
S'19200'
p951
sS'maximum_size'
p952
S'14336'
p953
sS'protocol'
p954
S'arduino'
p955
ssaa(lp956
S'pro328'
p957
a(dp958
S'build'
p959
(dp960
S'core'
p961
S'arduino'
p962
sS'mcu'
p963
S'atmega328p'
p964
sS'f_cpu'
p965
S'8000000L'
p966
sS'variant'
p967
S'standard'
p968
ssS'bootloader'
p969
(dp970
S'extended_fuses'
p971
S'0x05'
p972
sS'high_fuses'
p973
S'0xDA'
p974
sS'low_fuses'
p975
S'0xFF'
p976
sS'lock_bits'
p977
S'0x0F'
p978
sS'file'
p979
S'ATmegaBOOT_168_atmega328_pro_8MHz.hex'
p980
sS'path'
p981
S'atmega'
p982
sS'unlock_bits'
p983
S'0x3F'
p984
ssS'name'
p985
S'Arduino Pro or Pro Mini (3.3V, 8 MHz) w/ ATmega328'
p986
sS'upload'
p987
(dp988
S'speed'
p989
S'57600'
p990
sS'maximum_size'
p991
S'30720'
p992
sS'protocol'
p993
S'arduino'
p994
ssaa(lp995
S'pro'
p996
a(dp997
S'build'
p998
(dp999
S'core'
p1000
S'arduino'
p1001
sS'mcu'
p1002
S'atmega168'
p1003
sS'f_cpu'
p1004
S'8000000L'
p1005
sS'variant'
p1006
S'standard'
p1007
ssS'bootloader'
p1008
(dp1009
S'extended_fuses'
p1010
S'0x00'
p1011
sS'high_fuses'
p1012
S'0xdd'
p1013
sS'low_fuses'
p1014
S'0xc6'
p1015
sS'lock_bits'
p1016
S'0x0F'
p1017
sS'file'
p1018
S'ATmegaBOOT_168_pro_8MHz.hex'
p1019
sS'path'
p1020
S'atmega'
p1021
sS'unlock_bits'
p1022
S'0x3F'
p1023
ssS'name'
p1024
S'Arduino Pro or Pro Mini (3.3V, 8 MHz) w/ ATmega168'
p1025
sS'upload'
p1026
(dp1027
S'speed'
p1028
S'19200'
p1029
sS'maximum_size'
p1030
S'14336'
p1031
sS'protocol'
p1032
S'arduino'
p1033
ssaa(lp1034
S'atmega168'
p1035
a(dp1036
S'build'
p1037
(dp1038
S'core'
p1039
S'arduino'
p1040
sS'mcu'
p1041
S'atmega168'
p1042
sS'f_cpu'
p1043
S'16000000L'
p1044
sS'variant'
p1045
S'standard'
p1046
ssS'bootloader'
p1047
(dp1048
S'extended_fuses'
p1049
S'0x00'
p1050
sS'high_fuses'
p1051
S'0xdd'
p1052
sS'low_fuses'
p1053
S'0xff'
p1054
sS'lock_bits'
p1055
S'0x0F'
p1056
sS'file'
p1057
S'ATmegaBOOT_168_ng.hex'
p1058
sS'path'
p1059
S'atmega'
p1060
sS'unlock_bits'
p1061
S'0x3F'
p1062
ssS'name'
p1063
S'Arduino NG or older w/ ATmega168'
p1064
sS'upload'
p1065
(dp1066
S'speed'
p1067
S'19200'
p1068
sS'maximum_size'
p1069
S'14336'
p1070
sS'protocol'
p1071
S'arduino'
p1072
ssaa(lp1073
S'atmega8'
p1074
a(dp1075
S'build'
p1076
(dp1077
S'core'
p1078
S'arduino'
p1079
sS'mcu'
p1080
S'atmega8'
p1081
sS'f_cpu'
p1082
S'16000000L'
p1083
sS'variant'
p1084
S'standard'
p1085
ssS'bootloader'
p1086
(dp1087
S'high_fuses'
p1088
S'0xca'
p1089
sS'low_fuses'
p1090
S'0xdf'
p1091
sS'lock_bits'
p1092
S'0x0F'
p1093
sS'file'
p1094
S'ATmegaBOOT-prod-firmware-2009-11-07.hex'
p1095
sS'path'
p1096
S'atmega8'
p1097
sS'unlock_bits'
p1098
S'0x3F'
p1099
ssS'name'
p1100
S'Arduino NG or older w/ ATmega8'
p1101
sS'upload'
p1102
(dp1103
S'speed'
p1104
S'19200'
p1105
sS'maximum_size'
p1106
S'7168'
p1107
sS'protocol'
p1108
S'arduino'
p1109
ssaa(lp1110
S'robotControl'
p1111
a(dp1112
S'build'
p1113
(dp1114
S'core'
p1115
S'robot'
p1116
sS'f_cpu'
p1117
S'16000000L'
p1118
sS'vid'
p1119
S'0x2341'
p1120
sS'pid'
p1121
S'0x8038'
p1122
sS'variant'
p1123
S'robot_control'
p1124
sS'mcu'
p1125
S'atmega32u4'
p1126
ssS'bootloader'
p1127
(dp1128
S'extended_fuses'
p1129
S'0xcb'
p1130
sS'high_fuses'
p1131
S'0xd8'
p1132
sS'low_fuses'
p1133
S'0xff'
p1134
sS'lock_bits'
p1135
S'0x2F'
p1136
sS'file'
p1137
S'Caterina-Robot-Control.hex'
p1138
sS'path'
p1139
S'caterina-Arduino_Robot'
p1140
sS'unlock_bits'
p1141
S'0x3F'
p1142
ssS'name'
p1143
S'Arduino Robot Control'
p1144
sS'upload'
p1145
(dp1146
S'speed'
p1147
S'57600'
p1148
sS'maximum_size'
p1149
S'28672'
p1150
sS'protocol'
p1151
S'avr109'
p1152
sS'disable_flushing'
p1153
S'true'
p1154
ssaa(lp1155
S'robotMotor'
p1156
a(dp1157
S'build'
p1158
(dp1159
S'core'
p1160
S'robot'
p1161
sS'f_cpu'
p1162
S'16000000L'
p1163
sS'vid'
p1164
S'0x2341'
p1165
sS'pid'
p1166
S'0x8039'
p1167
sS'variant'
p1168
S'robot_motor'
p1169
sS'mcu'
p1170
S'atmega32u4'
p1171
ssS'bootloader'
p1172
(dp1173
S'extended_fuses'
p1174
S'0xcb'
p1175
sS'high_fuses'
p1176
S'0xd8'
p1177
sS'low_fuses'
p1178
S'0xff'
p1179
sS'lock_bits'
p1180
S'0x2F'
p1181
sS'file'
p1182
S'Caterina-Robot-Motor.hex'
p1183
sS'path'
p1184
S'caterina-Arduino_Robot'
p1185
sS'unlock_bits'
p1186
S'0x3F'
p1187
ssS'name'
p1188
S'Arduino Robot Motor'
p1189
sS'upload'
p1190
(dp1191
S'speed'
p1192
S'57600'
p1193
sS'maximum_size'
p1194
S'28672'
p1195
sS'protocol'
p1196
S'avr109'
p1197
sS'disable_flushing'
p1198
S'true'
p1199
ssaatp1200
Rp1201
(dp1202
S'default'
p1203
S'uno'
p1204
sbtp1205
a(S'cxx'
p1206
S'/usr/share/arduino/hardware/tools/avr/bin/avr-g++'
p1207
tp1208
a.